
radio_receiver.elf:     file format elf32-avr

Sections:
Idx Name          Size      VMA       LMA       File off  Algn
  0 .text         00000f74  00000000  00000000  00000094  2**1
                  CONTENTS, ALLOC, LOAD, READONLY, CODE
  1 .data         00000056  00800060  00000f74  00001008  2**0
                  CONTENTS, ALLOC, LOAD, DATA
  2 .bss          00000039  008000b6  008000b6  0000105e  2**0
                  ALLOC
  3 .comment      00000030  00000000  00000000  0000105e  2**0
                  CONTENTS, READONLY

Disassembly of section .text:

00000000 <__vectors>:
   0:	0c 94 2a 00 	jmp	0x54	; 0x54 <__ctors_end>
   4:	0c 94 47 00 	jmp	0x8e	; 0x8e <__bad_interrupt>
   8:	0c 94 47 00 	jmp	0x8e	; 0x8e <__bad_interrupt>
   c:	0c 94 47 00 	jmp	0x8e	; 0x8e <__bad_interrupt>
  10:	0c 94 47 00 	jmp	0x8e	; 0x8e <__bad_interrupt>
  14:	0c 94 47 00 	jmp	0x8e	; 0x8e <__bad_interrupt>
  18:	0c 94 47 00 	jmp	0x8e	; 0x8e <__bad_interrupt>
  1c:	0c 94 47 00 	jmp	0x8e	; 0x8e <__bad_interrupt>
  20:	0c 94 47 00 	jmp	0x8e	; 0x8e <__bad_interrupt>
  24:	0c 94 47 00 	jmp	0x8e	; 0x8e <__bad_interrupt>
  28:	0c 94 47 00 	jmp	0x8e	; 0x8e <__bad_interrupt>
  2c:	0c 94 0f 04 	jmp	0x81e	; 0x81e <__vector_11>
  30:	0c 94 47 00 	jmp	0x8e	; 0x8e <__bad_interrupt>
  34:	0c 94 47 00 	jmp	0x8e	; 0x8e <__bad_interrupt>
  38:	0c 94 47 00 	jmp	0x8e	; 0x8e <__bad_interrupt>
  3c:	0c 94 47 00 	jmp	0x8e	; 0x8e <__bad_interrupt>
  40:	0c 94 47 00 	jmp	0x8e	; 0x8e <__bad_interrupt>
  44:	0c 94 47 00 	jmp	0x8e	; 0x8e <__bad_interrupt>
  48:	0c 94 47 00 	jmp	0x8e	; 0x8e <__bad_interrupt>
  4c:	0c 94 47 00 	jmp	0x8e	; 0x8e <__bad_interrupt>
  50:	0c 94 47 00 	jmp	0x8e	; 0x8e <__bad_interrupt>

00000054 <__ctors_end>:
  54:	11 24       	eor	r1, r1
  56:	1f be       	out	0x3f, r1	; 63
  58:	cf e5       	ldi	r28, 0x5F	; 95
  5a:	d8 e0       	ldi	r29, 0x08	; 8
  5c:	de bf       	out	0x3e, r29	; 62
  5e:	cd bf       	out	0x3d, r28	; 61

00000060 <__do_copy_data>:
  60:	10 e0       	ldi	r17, 0x00	; 0
  62:	a0 e6       	ldi	r26, 0x60	; 96
  64:	b0 e0       	ldi	r27, 0x00	; 0
  66:	e4 e7       	ldi	r30, 0x74	; 116
  68:	ff e0       	ldi	r31, 0x0F	; 15
  6a:	02 c0       	rjmp	.+4      	; 0x70 <__do_copy_data+0x10>
  6c:	05 90       	lpm	r0, Z+
  6e:	0d 92       	st	X+, r0
  70:	a6 3b       	cpi	r26, 0xB6	; 182
  72:	b1 07       	cpc	r27, r17
  74:	d9 f7       	brne	.-10     	; 0x6c <__do_copy_data+0xc>

00000076 <__do_clear_bss>:
  76:	20 e0       	ldi	r18, 0x00	; 0
  78:	a6 eb       	ldi	r26, 0xB6	; 182
  7a:	b0 e0       	ldi	r27, 0x00	; 0
  7c:	01 c0       	rjmp	.+2      	; 0x80 <.do_clear_bss_start>

0000007e <.do_clear_bss_loop>:
  7e:	1d 92       	st	X+, r1

00000080 <.do_clear_bss_start>:
  80:	af 3e       	cpi	r26, 0xEF	; 239
  82:	b2 07       	cpc	r27, r18
  84:	e1 f7       	brne	.-8      	; 0x7e <.do_clear_bss_loop>
  86:	0e 94 d3 05 	call	0xba6	; 0xba6 <main>
  8a:	0c 94 b8 07 	jmp	0xf70	; 0xf70 <_exit>

0000008e <__bad_interrupt>:
  8e:	0c 94 00 00 	jmp	0	; 0x0 <__vectors>

00000092 <init_SPI>:
  92:	81 30       	cpi	r24, 0x01	; 1
  94:	91 f4       	brne	.+36     	; 0xba <init_SPI+0x28>
  96:	87 b3       	in	r24, 0x17	; 23
  98:	88 6b       	ori	r24, 0xB8	; 184
  9a:	87 bb       	out	0x17, r24	; 23
  9c:	6c 9a       	sbi	0x0d, 4	; 13
  9e:	60 34       	cpi	r22, 0x40	; 64
  a0:	11 f4       	brne	.+4      	; 0xa6 <init_SPI+0x14>
  a2:	69 9a       	sbi	0x0d, 1	; 13
  a4:	0b c0       	rjmp	.+22     	; 0xbc <init_SPI+0x2a>
  a6:	60 31       	cpi	r22, 0x10	; 16
  a8:	11 f4       	brne	.+4      	; 0xae <init_SPI+0x1c>
  aa:	68 9a       	sbi	0x0d, 0	; 13
  ac:	07 c0       	rjmp	.+14     	; 0xbc <init_SPI+0x2a>
  ae:	64 30       	cpi	r22, 0x04	; 4
  b0:	29 f0       	breq	.+10     	; 0xbc <init_SPI+0x2a>
  b2:	8d b1       	in	r24, 0x0d	; 13
  b4:	83 60       	ori	r24, 0x03	; 3
  b6:	8d b9       	out	0x0d, r24	; 13
  b8:	01 c0       	rjmp	.+2      	; 0xbc <init_SPI+0x2a>
  ba:	be 9a       	sbi	0x17, 6	; 23
  bc:	c4 9a       	sbi	0x18, 4	; 24
  be:	c3 98       	cbi	0x18, 3	; 24
  c0:	6e 9a       	sbi	0x0d, 6	; 13
  c2:	08 95       	ret

000000c4 <send_SPI>:
  c4:	8f b9       	out	0x0f, r24	; 15
  c6:	77 9b       	sbis	0x0e, 7	; 14
  c8:	fe cf       	rjmp	.-4      	; 0xc6 <send_SPI+0x2>
  ca:	8f b1       	in	r24, 0x0f	; 15
  cc:	08 95       	ret

000000ce <get_reg>:
  ce:	c4 98       	cbi	0x18, 4	; 24
  d0:	9a e1       	ldi	r25, 0x1A	; 26
  d2:	9a 95       	dec	r25
  d4:	f1 f7       	brne	.-4      	; 0xd2 <get_reg+0x4>
  d6:	00 c0       	rjmp	.+0      	; 0xd8 <get_reg+0xa>
  d8:	0e 94 62 00 	call	0xc4	; 0xc4 <send_SPI>
  dc:	8a e1       	ldi	r24, 0x1A	; 26
  de:	8a 95       	dec	r24
  e0:	f1 f7       	brne	.-4      	; 0xde <get_reg+0x10>
  e2:	00 c0       	rjmp	.+0      	; 0xe4 <get_reg+0x16>
  e4:	8f ef       	ldi	r24, 0xFF	; 255
  e6:	0e 94 62 00 	call	0xc4	; 0xc4 <send_SPI>
  ea:	9a e1       	ldi	r25, 0x1A	; 26
  ec:	9a 95       	dec	r25
  ee:	f1 f7       	brne	.-4      	; 0xec <get_reg+0x1e>
  f0:	00 c0       	rjmp	.+0      	; 0xf2 <get_reg+0x24>
  f2:	c4 9a       	sbi	0x18, 4	; 24
  f4:	08 95       	ret

000000f6 <r_w_radio>:
  f6:	af 92       	push	r10
  f8:	bf 92       	push	r11
  fa:	cf 92       	push	r12
  fc:	df 92       	push	r13
  fe:	ef 92       	push	r14
 100:	ff 92       	push	r15
 102:	0f 93       	push	r16
 104:	1f 93       	push	r17
 106:	cf 93       	push	r28
 108:	df 93       	push	r29
 10a:	a8 2e       	mov	r10, r24
 10c:	b6 2e       	mov	r11, r22
 10e:	6a 01       	movw	r12, r20
 110:	79 01       	movw	r14, r18
 112:	81 e0       	ldi	r24, 0x01	; 1
 114:	a8 12       	cpse	r10, r24
 116:	02 c0       	rjmp	.+4      	; 0x11c <r_w_radio+0x26>
 118:	80 e2       	ldi	r24, 0x20	; 32
 11a:	b8 0e       	add	r11, r24
 11c:	8a e1       	ldi	r24, 0x1A	; 26
 11e:	8a 95       	dec	r24
 120:	f1 f7       	brne	.-4      	; 0x11e <r_w_radio+0x28>
 122:	00 c0       	rjmp	.+0      	; 0x124 <r_w_radio+0x2e>
 124:	c4 98       	cbi	0x18, 4	; 24
 126:	8a e1       	ldi	r24, 0x1A	; 26
 128:	8a 95       	dec	r24
 12a:	f1 f7       	brne	.-4      	; 0x128 <r_w_radio+0x32>
 12c:	00 c0       	rjmp	.+0      	; 0x12e <r_w_radio+0x38>
 12e:	8b 2d       	mov	r24, r11
 130:	0e 94 62 00 	call	0xc4	; 0xc4 <send_SPI>
 134:	8a e1       	ldi	r24, 0x1A	; 26
 136:	8a 95       	dec	r24
 138:	f1 f7       	brne	.-4      	; 0x136 <r_w_radio+0x40>
 13a:	00 c0       	rjmp	.+0      	; 0x13c <r_w_radio+0x46>
 13c:	c0 e0       	ldi	r28, 0x00	; 0
 13e:	d0 e0       	ldi	r29, 0x00	; 0
 140:	ce 15       	cp	r28, r14
 142:	df 05       	cpc	r29, r15
 144:	cc f4       	brge	.+50     	; 0x178 <r_w_radio+0x82>
 146:	a1 10       	cpse	r10, r1
 148:	0b c0       	rjmp	.+22     	; 0x160 <r_w_radio+0x6a>
 14a:	80 ea       	ldi	r24, 0xA0	; 160
 14c:	b8 16       	cp	r11, r24
 14e:	41 f0       	breq	.+16     	; 0x160 <r_w_radio+0x6a>
 150:	8f ef       	ldi	r24, 0xFF	; 255
 152:	0e 94 62 00 	call	0xc4	; 0xc4 <send_SPI>
 156:	f8 01       	movw	r30, r16
 158:	ec 0f       	add	r30, r28
 15a:	fd 1f       	adc	r31, r29
 15c:	80 83       	st	Z, r24
 15e:	06 c0       	rjmp	.+12     	; 0x16c <r_w_radio+0x76>
 160:	f6 01       	movw	r30, r12
 162:	ec 0f       	add	r30, r28
 164:	fd 1f       	adc	r31, r29
 166:	80 81       	ld	r24, Z
 168:	0e 94 62 00 	call	0xc4	; 0xc4 <send_SPI>
 16c:	8a e1       	ldi	r24, 0x1A	; 26
 16e:	8a 95       	dec	r24
 170:	f1 f7       	brne	.-4      	; 0x16e <r_w_radio+0x78>
 172:	00 c0       	rjmp	.+0      	; 0x174 <r_w_radio+0x7e>
 174:	21 96       	adiw	r28, 0x01	; 1
 176:	e4 cf       	rjmp	.-56     	; 0x140 <r_w_radio+0x4a>
 178:	c4 9a       	sbi	0x18, 4	; 24
 17a:	df 91       	pop	r29
 17c:	cf 91       	pop	r28
 17e:	1f 91       	pop	r17
 180:	0f 91       	pop	r16
 182:	ff 90       	pop	r15
 184:	ef 90       	pop	r14
 186:	df 90       	pop	r13
 188:	cf 90       	pop	r12
 18a:	bf 90       	pop	r11
 18c:	af 90       	pop	r10
 18e:	08 95       	ret

00000190 <init_radio>:
 190:	df 92       	push	r13
 192:	ef 92       	push	r14
 194:	ff 92       	push	r15
 196:	0f 93       	push	r16
 198:	1f 93       	push	r17
 19a:	cf 93       	push	r28
 19c:	df 93       	push	r29
 19e:	00 d0       	rcall	.+0      	; 0x1a0 <init_radio+0x10>
 1a0:	00 d0       	rcall	.+0      	; 0x1a2 <init_radio+0x12>
 1a2:	00 d0       	rcall	.+0      	; 0x1a4 <init_radio+0x14>
 1a4:	cd b7       	in	r28, 0x3d	; 61
 1a6:	de b7       	in	r29, 0x3e	; 62
 1a8:	d8 2e       	mov	r13, r24
 1aa:	96 2f       	mov	r25, r22
 1ac:	e4 2e       	mov	r14, r20
 1ae:	2f ef       	ldi	r18, 0xFF	; 255
 1b0:	30 e7       	ldi	r19, 0x70	; 112
 1b2:	82 e0       	ldi	r24, 0x02	; 2
 1b4:	21 50       	subi	r18, 0x01	; 1
 1b6:	30 40       	sbci	r19, 0x00	; 0
 1b8:	80 40       	sbci	r24, 0x00	; 0
 1ba:	e1 f7       	brne	.-8      	; 0x1b4 <init_radio+0x24>
 1bc:	00 c0       	rjmp	.+0      	; 0x1be <init_radio+0x2e>
 1be:	00 00       	nop
 1c0:	ff 24       	eor	r15, r15
 1c2:	f3 94       	inc	r15
 1c4:	f9 82       	std	Y+1, r15	; 0x01
 1c6:	04 ee       	ldi	r16, 0xE4	; 228
 1c8:	10 e0       	ldi	r17, 0x00	; 0
 1ca:	21 e0       	ldi	r18, 0x01	; 1
 1cc:	30 e0       	ldi	r19, 0x00	; 0
 1ce:	ae 01       	movw	r20, r28
 1d0:	4f 5f       	subi	r20, 0xFF	; 255
 1d2:	5f 4f       	sbci	r21, 0xFF	; 255
 1d4:	61 e0       	ldi	r22, 0x01	; 1
 1d6:	81 e0       	ldi	r24, 0x01	; 1
 1d8:	9e 83       	std	Y+6, r25	; 0x06
 1da:	0e 94 7b 00 	call	0xf6	; 0xf6 <r_w_radio>
 1de:	f9 82       	std	Y+1, r15	; 0x01
 1e0:	21 e0       	ldi	r18, 0x01	; 1
 1e2:	30 e0       	ldi	r19, 0x00	; 0
 1e4:	ae 01       	movw	r20, r28
 1e6:	4f 5f       	subi	r20, 0xFF	; 255
 1e8:	5f 4f       	sbci	r21, 0xFF	; 255
 1ea:	62 e0       	ldi	r22, 0x02	; 2
 1ec:	81 e0       	ldi	r24, 0x01	; 1
 1ee:	0e 94 7b 00 	call	0xf6	; 0xf6 <r_w_radio>
 1f2:	83 e0       	ldi	r24, 0x03	; 3
 1f4:	89 83       	std	Y+1, r24	; 0x01
 1f6:	21 e0       	ldi	r18, 0x01	; 1
 1f8:	30 e0       	ldi	r19, 0x00	; 0
 1fa:	ae 01       	movw	r20, r28
 1fc:	4f 5f       	subi	r20, 0xFF	; 255
 1fe:	5f 4f       	sbci	r21, 0xFF	; 255
 200:	63 e0       	ldi	r22, 0x03	; 3
 202:	81 e0       	ldi	r24, 0x01	; 1
 204:	0e 94 7b 00 	call	0xf6	; 0xf6 <r_w_radio>
 208:	f9 82       	std	Y+1, r15	; 0x01
 20a:	21 e0       	ldi	r18, 0x01	; 1
 20c:	30 e0       	ldi	r19, 0x00	; 0
 20e:	ae 01       	movw	r20, r28
 210:	4f 5f       	subi	r20, 0xFF	; 255
 212:	5f 4f       	sbci	r21, 0xFF	; 255
 214:	65 e0       	ldi	r22, 0x05	; 5
 216:	81 e0       	ldi	r24, 0x01	; 1
 218:	0e 94 7b 00 	call	0xf6	; 0xf6 <r_w_radio>
 21c:	9e 81       	ldd	r25, Y+6	; 0x06
 21e:	91 30       	cpi	r25, 0x01	; 1
 220:	21 f0       	breq	.+8      	; 0x22a <init_radio+0x9a>
 222:	92 30       	cpi	r25, 0x02	; 2
 224:	11 f4       	brne	.+4      	; 0x22a <init_radio+0x9a>
 226:	8e e0       	ldi	r24, 0x0E	; 14
 228:	01 c0       	rjmp	.+2      	; 0x22c <init_radio+0x9c>
 22a:	86 e0       	ldi	r24, 0x06	; 6
 22c:	89 83       	std	Y+1, r24	; 0x01
 22e:	04 ee       	ldi	r16, 0xE4	; 228
 230:	10 e0       	ldi	r17, 0x00	; 0
 232:	21 e0       	ldi	r18, 0x01	; 1
 234:	30 e0       	ldi	r19, 0x00	; 0
 236:	ae 01       	movw	r20, r28
 238:	4f 5f       	subi	r20, 0xFF	; 255
 23a:	5f 4f       	sbci	r21, 0xFF	; 255
 23c:	66 e0       	ldi	r22, 0x06	; 6
 23e:	81 e0       	ldi	r24, 0x01	; 1
 240:	0e 94 7b 00 	call	0xf6	; 0xf6 <r_w_radio>
 244:	92 e1       	ldi	r25, 0x12	; 18
 246:	99 83       	std	Y+1, r25	; 0x01
 248:	9a 83       	std	Y+2, r25	; 0x02
 24a:	9b 83       	std	Y+3, r25	; 0x03
 24c:	9c 83       	std	Y+4, r25	; 0x04
 24e:	9d 83       	std	Y+5, r25	; 0x05
 250:	25 e0       	ldi	r18, 0x05	; 5
 252:	30 e0       	ldi	r19, 0x00	; 0
 254:	ae 01       	movw	r20, r28
 256:	4f 5f       	subi	r20, 0xFF	; 255
 258:	5f 4f       	sbci	r21, 0xFF	; 255
 25a:	6a e0       	ldi	r22, 0x0A	; 10
 25c:	81 e0       	ldi	r24, 0x01	; 1
 25e:	0e 94 7b 00 	call	0xf6	; 0xf6 <r_w_radio>
 262:	25 e0       	ldi	r18, 0x05	; 5
 264:	30 e0       	ldi	r19, 0x00	; 0
 266:	ae 01       	movw	r20, r28
 268:	4f 5f       	subi	r20, 0xFF	; 255
 26a:	5f 4f       	sbci	r21, 0xFF	; 255
 26c:	60 e1       	ldi	r22, 0x10	; 16
 26e:	81 e0       	ldi	r24, 0x01	; 1
 270:	0e 94 7b 00 	call	0xf6	; 0xf6 <r_w_radio>
 274:	8f ef       	ldi	r24, 0xFF	; 255
 276:	8e 0d       	add	r24, r14
 278:	85 30       	cpi	r24, 0x05	; 5
 27a:	10 f4       	brcc	.+4      	; 0x280 <init_radio+0xf0>
 27c:	e9 82       	std	Y+1, r14	; 0x01
 27e:	02 c0       	rjmp	.+4      	; 0x284 <init_radio+0xf4>
 280:	81 e0       	ldi	r24, 0x01	; 1
 282:	89 83       	std	Y+1, r24	; 0x01
 284:	04 ee       	ldi	r16, 0xE4	; 228
 286:	10 e0       	ldi	r17, 0x00	; 0
 288:	21 e0       	ldi	r18, 0x01	; 1
 28a:	30 e0       	ldi	r19, 0x00	; 0
 28c:	ae 01       	movw	r20, r28
 28e:	4f 5f       	subi	r20, 0xFF	; 255
 290:	5f 4f       	sbci	r21, 0xFF	; 255
 292:	61 e1       	ldi	r22, 0x11	; 17
 294:	81 e0       	ldi	r24, 0x01	; 1
 296:	0e 94 7b 00 	call	0xf6	; 0xf6 <r_w_radio>
 29a:	83 e2       	ldi	r24, 0x23	; 35
 29c:	89 83       	std	Y+1, r24	; 0x01
 29e:	21 e0       	ldi	r18, 0x01	; 1
 2a0:	30 e0       	ldi	r19, 0x00	; 0
 2a2:	ae 01       	movw	r20, r28
 2a4:	4f 5f       	subi	r20, 0xFF	; 255
 2a6:	5f 4f       	sbci	r21, 0xFF	; 255
 2a8:	64 e0       	ldi	r22, 0x04	; 4
 2aa:	81 e0       	ldi	r24, 0x01	; 1
 2ac:	0e 94 7b 00 	call	0xf6	; 0xf6 <r_w_radio>
 2b0:	d1 10       	cpse	r13, r1
 2b2:	05 c0       	rjmp	.+10     	; 0x2be <init_radio+0x12e>
 2b4:	10 92 dd 00 	sts	0x00DD, r1
 2b8:	8e e1       	ldi	r24, 0x1E	; 30
 2ba:	89 83       	std	Y+1, r24	; 0x01
 2bc:	07 c0       	rjmp	.+14     	; 0x2cc <init_radio+0x13c>
 2be:	81 e0       	ldi	r24, 0x01	; 1
 2c0:	80 93 dd 00 	sts	0x00DD, r24
 2c4:	8f e1       	ldi	r24, 0x1F	; 31
 2c6:	89 83       	std	Y+1, r24	; 0x01
 2c8:	04 ee       	ldi	r16, 0xE4	; 228
 2ca:	10 e0       	ldi	r17, 0x00	; 0
 2cc:	21 e0       	ldi	r18, 0x01	; 1
 2ce:	30 e0       	ldi	r19, 0x00	; 0
 2d0:	ae 01       	movw	r20, r28
 2d2:	4f 5f       	subi	r20, 0xFF	; 255
 2d4:	5f 4f       	sbci	r21, 0xFF	; 255
 2d6:	60 e0       	ldi	r22, 0x00	; 0
 2d8:	81 e0       	ldi	r24, 0x01	; 1
 2da:	0e 94 7b 00 	call	0xf6	; 0xf6 <r_w_radio>
 2de:	8f e1       	ldi	r24, 0x1F	; 31
 2e0:	9e e4       	ldi	r25, 0x4E	; 78
 2e2:	01 97       	sbiw	r24, 0x01	; 1
 2e4:	f1 f7       	brne	.-4      	; 0x2e2 <init_radio+0x152>
 2e6:	00 c0       	rjmp	.+0      	; 0x2e8 <init_radio+0x158>
 2e8:	00 00       	nop
 2ea:	26 96       	adiw	r28, 0x06	; 6
 2ec:	0f b6       	in	r0, 0x3f	; 63
 2ee:	f8 94       	cli
 2f0:	de bf       	out	0x3e, r29	; 62
 2f2:	0f be       	out	0x3f, r0	; 63
 2f4:	cd bf       	out	0x3d, r28	; 61
 2f6:	df 91       	pop	r29
 2f8:	cf 91       	pop	r28
 2fa:	1f 91       	pop	r17
 2fc:	0f 91       	pop	r16
 2fe:	ff 90       	pop	r15
 300:	ef 90       	pop	r14
 302:	df 90       	pop	r13
 304:	08 95       	ret

00000306 <reset_radio>:
 306:	8a e1       	ldi	r24, 0x1A	; 26
 308:	8a 95       	dec	r24
 30a:	f1 f7       	brne	.-4      	; 0x308 <reset_radio+0x2>
 30c:	00 c0       	rjmp	.+0      	; 0x30e <reset_radio+0x8>
 30e:	c4 98       	cbi	0x18, 4	; 24
 310:	8a e1       	ldi	r24, 0x1A	; 26
 312:	8a 95       	dec	r24
 314:	f1 f7       	brne	.-4      	; 0x312 <reset_radio+0xc>
 316:	00 c0       	rjmp	.+0      	; 0x318 <reset_radio+0x12>
 318:	87 e2       	ldi	r24, 0x27	; 39
 31a:	0e 94 62 00 	call	0xc4	; 0xc4 <send_SPI>
 31e:	8a e1       	ldi	r24, 0x1A	; 26
 320:	8a 95       	dec	r24
 322:	f1 f7       	brne	.-4      	; 0x320 <reset_radio+0x1a>
 324:	00 c0       	rjmp	.+0      	; 0x326 <reset_radio+0x20>
 326:	80 e7       	ldi	r24, 0x70	; 112
 328:	0e 94 62 00 	call	0xc4	; 0xc4 <send_SPI>
 32c:	8a e1       	ldi	r24, 0x1A	; 26
 32e:	8a 95       	dec	r24
 330:	f1 f7       	brne	.-4      	; 0x32e <reset_radio+0x28>
 332:	00 c0       	rjmp	.+0      	; 0x334 <reset_radio+0x2e>
 334:	c4 9a       	sbi	0x18, 4	; 24
 336:	08 95       	ret

00000338 <radio_switchReceiver>:
 338:	0f 93       	push	r16
 33a:	1f 93       	push	r17
 33c:	cf 93       	push	r28
 33e:	df 93       	push	r29
 340:	00 d0       	rcall	.+0      	; 0x342 <radio_switchReceiver+0xa>
 342:	00 d0       	rcall	.+0      	; 0x344 <radio_switchReceiver+0xc>
 344:	1f 92       	push	r1
 346:	cd b7       	in	r28, 0x3d	; 61
 348:	de b7       	in	r29, 0x3e	; 62
 34a:	8f e1       	ldi	r24, 0x1F	; 31
 34c:	89 83       	std	Y+1, r24	; 0x01
 34e:	04 ee       	ldi	r16, 0xE4	; 228
 350:	10 e0       	ldi	r17, 0x00	; 0
 352:	21 e0       	ldi	r18, 0x01	; 1
 354:	30 e0       	ldi	r19, 0x00	; 0
 356:	ae 01       	movw	r20, r28
 358:	4f 5f       	subi	r20, 0xFF	; 255
 35a:	5f 4f       	sbci	r21, 0xFF	; 255
 35c:	60 e0       	ldi	r22, 0x00	; 0
 35e:	81 e0       	ldi	r24, 0x01	; 1
 360:	0e 94 7b 00 	call	0xf6	; 0xf6 <r_w_radio>
 364:	0f 90       	pop	r0
 366:	0f 90       	pop	r0
 368:	0f 90       	pop	r0
 36a:	0f 90       	pop	r0
 36c:	0f 90       	pop	r0
 36e:	df 91       	pop	r29
 370:	cf 91       	pop	r28
 372:	1f 91       	pop	r17
 374:	0f 91       	pop	r16
 376:	08 95       	ret

00000378 <radio_switchTransmiter>:
 378:	0f 93       	push	r16
 37a:	1f 93       	push	r17
 37c:	cf 93       	push	r28
 37e:	df 93       	push	r29
 380:	00 d0       	rcall	.+0      	; 0x382 <radio_switchTransmiter+0xa>
 382:	00 d0       	rcall	.+0      	; 0x384 <radio_switchTransmiter+0xc>
 384:	1f 92       	push	r1
 386:	cd b7       	in	r28, 0x3d	; 61
 388:	de b7       	in	r29, 0x3e	; 62
 38a:	8e e1       	ldi	r24, 0x1E	; 30
 38c:	89 83       	std	Y+1, r24	; 0x01
 38e:	04 ee       	ldi	r16, 0xE4	; 228
 390:	10 e0       	ldi	r17, 0x00	; 0
 392:	21 e0       	ldi	r18, 0x01	; 1
 394:	30 e0       	ldi	r19, 0x00	; 0
 396:	ae 01       	movw	r20, r28
 398:	4f 5f       	subi	r20, 0xFF	; 255
 39a:	5f 4f       	sbci	r21, 0xFF	; 255
 39c:	60 e0       	ldi	r22, 0x00	; 0
 39e:	81 e0       	ldi	r24, 0x01	; 1
 3a0:	0e 94 7b 00 	call	0xf6	; 0xf6 <r_w_radio>
 3a4:	0f 90       	pop	r0
 3a6:	0f 90       	pop	r0
 3a8:	0f 90       	pop	r0
 3aa:	0f 90       	pop	r0
 3ac:	0f 90       	pop	r0
 3ae:	df 91       	pop	r29
 3b0:	cf 91       	pop	r28
 3b2:	1f 91       	pop	r17
 3b4:	0f 91       	pop	r16
 3b6:	08 95       	ret

000003b8 <radio_preparePayload>:
 3b8:	ff 92       	push	r15
 3ba:	0f 93       	push	r16
 3bc:	1f 93       	push	r17
 3be:	cf 93       	push	r28
 3c0:	df 93       	push	r29
 3c2:	ec 01       	movw	r28, r24
 3c4:	f6 2e       	mov	r15, r22
 3c6:	0e 94 83 01 	call	0x306	; 0x306 <reset_radio>
 3ca:	04 ee       	ldi	r16, 0xE4	; 228
 3cc:	10 e0       	ldi	r17, 0x00	; 0
 3ce:	20 e0       	ldi	r18, 0x00	; 0
 3d0:	30 e0       	ldi	r19, 0x00	; 0
 3d2:	ae 01       	movw	r20, r28
 3d4:	61 ee       	ldi	r22, 0xE1	; 225
 3d6:	80 e0       	ldi	r24, 0x00	; 0
 3d8:	0e 94 7b 00 	call	0xf6	; 0xf6 <r_w_radio>
 3dc:	2f 2d       	mov	r18, r15
 3de:	30 e0       	ldi	r19, 0x00	; 0
 3e0:	ae 01       	movw	r20, r28
 3e2:	60 ea       	ldi	r22, 0xA0	; 160
 3e4:	80 e0       	ldi	r24, 0x00	; 0
 3e6:	0e 94 7b 00 	call	0xf6	; 0xf6 <r_w_radio>
 3ea:	df 91       	pop	r29
 3ec:	cf 91       	pop	r28
 3ee:	1f 91       	pop	r17
 3f0:	0f 91       	pop	r16
 3f2:	ff 90       	pop	r15
 3f4:	08 95       	ret

000003f6 <radio_transmit>:
 3f6:	c3 9a       	sbi	0x18, 3	; 24
 3f8:	8f e8       	ldi	r24, 0x8F	; 143
 3fa:	91 e0       	ldi	r25, 0x01	; 1
 3fc:	01 97       	sbiw	r24, 0x01	; 1
 3fe:	f1 f7       	brne	.-4      	; 0x3fc <radio_transmit+0x6>
 400:	00 c0       	rjmp	.+0      	; 0x402 <radio_transmit+0xc>
 402:	00 00       	nop
 404:	c3 98       	cbi	0x18, 3	; 24
 406:	08 95       	ret

00000408 <radio_receive>:
 408:	0f 93       	push	r16
 40a:	1f 93       	push	r17
 40c:	2a e1       	ldi	r18, 0x1A	; 26
 40e:	2a 95       	dec	r18
 410:	f1 f7       	brne	.-4      	; 0x40e <radio_receive+0x6>
 412:	00 c0       	rjmp	.+0      	; 0x414 <radio_receive+0xc>
 414:	c3 98       	cbi	0x18, 3	; 24
 416:	26 2f       	mov	r18, r22
 418:	30 e0       	ldi	r19, 0x00	; 0
 41a:	8c 01       	movw	r16, r24
 41c:	44 ee       	ldi	r20, 0xE4	; 228
 41e:	50 e0       	ldi	r21, 0x00	; 0
 420:	61 e6       	ldi	r22, 0x61	; 97
 422:	80 e0       	ldi	r24, 0x00	; 0
 424:	0e 94 7b 00 	call	0xf6	; 0xf6 <r_w_radio>
 428:	8a e1       	ldi	r24, 0x1A	; 26
 42a:	8a 95       	dec	r24
 42c:	f1 f7       	brne	.-4      	; 0x42a <radio_receive+0x22>
 42e:	00 c0       	rjmp	.+0      	; 0x430 <radio_receive+0x28>
 430:	82 ee       	ldi	r24, 0xE2	; 226
 432:	0e 94 62 00 	call	0xc4	; 0xc4 <send_SPI>
 436:	2a e1       	ldi	r18, 0x1A	; 26
 438:	2a 95       	dec	r18
 43a:	f1 f7       	brne	.-4      	; 0x438 <radio_receive+0x30>
 43c:	00 c0       	rjmp	.+0      	; 0x43e <radio_receive+0x36>
 43e:	0e 94 83 01 	call	0x306	; 0x306 <reset_radio>
 442:	8a e1       	ldi	r24, 0x1A	; 26
 444:	8a 95       	dec	r24
 446:	f1 f7       	brne	.-4      	; 0x444 <radio_receive+0x3c>
 448:	00 c0       	rjmp	.+0      	; 0x44a <radio_receive+0x42>
 44a:	1f 91       	pop	r17
 44c:	0f 91       	pop	r16
 44e:	08 95       	ret

00000450 <getBytes>:
 450:	fa 01       	movw	r30, r20
 452:	60 83       	st	Z, r22
 454:	71 83       	std	Z+1, r23	; 0x01
 456:	82 83       	std	Z+2, r24	; 0x02
 458:	93 83       	std	Z+3, r25	; 0x03
 45a:	08 95       	ret

0000045c <getValFromBytes>:
 45c:	fc 01       	movw	r30, r24
 45e:	60 81       	ld	r22, Z
 460:	71 81       	ldd	r23, Z+1	; 0x01
 462:	82 81       	ldd	r24, Z+2	; 0x02
 464:	93 81       	ldd	r25, Z+3	; 0x03
 466:	08 95       	ret

00000468 <uart_init>:
 468:	10 bc       	out	0x20, r1	; 32
 46a:	83 e3       	ldi	r24, 0x33	; 51
 46c:	89 b9       	out	0x09, r24	; 9
 46e:	80 b5       	in	r24, 0x20	; 32
 470:	8e 6a       	ori	r24, 0xAE	; 174
 472:	80 bd       	out	0x20, r24	; 32
 474:	8a b1       	in	r24, 0x0a	; 10
 476:	88 69       	ori	r24, 0x98	; 152
 478:	8a b9       	out	0x0a, r24	; 10
 47a:	08 95       	ret

0000047c <uart_send>:
 47c:	5d 9b       	sbis	0x0b, 5	; 11
 47e:	fe cf       	rjmp	.-4      	; 0x47c <uart_send>
 480:	8c b9       	out	0x0c, r24	; 12
 482:	08 95       	ret

00000484 <uart_receive>:
 484:	5f 9b       	sbis	0x0b, 7	; 11
 486:	fe cf       	rjmp	.-4      	; 0x484 <uart_receive>
 488:	8c b1       	in	r24, 0x0c	; 12
 48a:	08 95       	ret

0000048c <uart_sendByteAsChar>:
 48c:	0f 93       	push	r16
 48e:	1f 93       	push	r17
 490:	cf 93       	push	r28
 492:	df 93       	push	r29
 494:	c7 e0       	ldi	r28, 0x07	; 7
 496:	d0 e0       	ldi	r29, 0x00	; 0
 498:	08 2f       	mov	r16, r24
 49a:	10 e0       	ldi	r17, 0x00	; 0
 49c:	c8 01       	movw	r24, r16
 49e:	0c 2e       	mov	r0, r28
 4a0:	02 c0       	rjmp	.+4      	; 0x4a6 <uart_sendByteAsChar+0x1a>
 4a2:	95 95       	asr	r25
 4a4:	87 95       	ror	r24
 4a6:	0a 94       	dec	r0
 4a8:	e2 f7       	brpl	.-8      	; 0x4a2 <uart_sendByteAsChar+0x16>
 4aa:	80 ff       	sbrs	r24, 0
 4ac:	02 c0       	rjmp	.+4      	; 0x4b2 <uart_sendByteAsChar+0x26>
 4ae:	81 e3       	ldi	r24, 0x31	; 49
 4b0:	01 c0       	rjmp	.+2      	; 0x4b4 <uart_sendByteAsChar+0x28>
 4b2:	80 e3       	ldi	r24, 0x30	; 48
 4b4:	0e 94 3e 02 	call	0x47c	; 0x47c <uart_send>
 4b8:	21 97       	sbiw	r28, 0x01	; 1
 4ba:	80 f7       	brcc	.-32     	; 0x49c <uart_sendByteAsChar+0x10>
 4bc:	8d e0       	ldi	r24, 0x0D	; 13
 4be:	df 91       	pop	r29
 4c0:	cf 91       	pop	r28
 4c2:	1f 91       	pop	r17
 4c4:	0f 91       	pop	r16
 4c6:	0c 94 3e 02 	jmp	0x47c	; 0x47c <uart_send>

000004ca <uart_sendTable>:
 4ca:	ef 92       	push	r14
 4cc:	ff 92       	push	r15
 4ce:	0f 93       	push	r16
 4d0:	1f 93       	push	r17
 4d2:	cf 93       	push	r28
 4d4:	df 93       	push	r29
 4d6:	8c 01       	movw	r16, r24
 4d8:	ec 01       	movw	r28, r24
 4da:	e6 2e       	mov	r14, r22
 4dc:	f1 2c       	mov	r15, r1
 4de:	ce 01       	movw	r24, r28
 4e0:	80 1b       	sub	r24, r16
 4e2:	91 0b       	sbc	r25, r17
 4e4:	8e 15       	cp	r24, r14
 4e6:	9f 05       	cpc	r25, r15
 4e8:	24 f4       	brge	.+8      	; 0x4f2 <uart_sendTable+0x28>
 4ea:	89 91       	ld	r24, Y+
 4ec:	0e 94 3e 02 	call	0x47c	; 0x47c <uart_send>
 4f0:	f6 cf       	rjmp	.-20     	; 0x4de <uart_sendTable+0x14>
 4f2:	8d e0       	ldi	r24, 0x0D	; 13
 4f4:	df 91       	pop	r29
 4f6:	cf 91       	pop	r28
 4f8:	1f 91       	pop	r17
 4fa:	0f 91       	pop	r16
 4fc:	ff 90       	pop	r15
 4fe:	ef 90       	pop	r14
 500:	0c 94 3e 02 	jmp	0x47c	; 0x47c <uart_send>

00000504 <uart_sendString>:
 504:	0f 93       	push	r16
 506:	1f 93       	push	r17
 508:	cf 93       	push	r28
 50a:	df 93       	push	r29
 50c:	ec 01       	movw	r28, r24
 50e:	8c 01       	movw	r16, r24
 510:	fe 01       	movw	r30, r28
 512:	01 90       	ld	r0, Z+
 514:	00 20       	and	r0, r0
 516:	e9 f7       	brne	.-6      	; 0x512 <uart_sendString+0xe>
 518:	31 97       	sbiw	r30, 0x01	; 1
 51a:	ec 1b       	sub	r30, r28
 51c:	fd 0b       	sbc	r31, r29
 51e:	c8 01       	movw	r24, r16
 520:	8c 1b       	sub	r24, r28
 522:	9d 0b       	sbc	r25, r29
 524:	8e 17       	cp	r24, r30
 526:	9f 07       	cpc	r25, r31
 528:	30 f4       	brcc	.+12     	; 0x536 <uart_sendString+0x32>
 52a:	f8 01       	movw	r30, r16
 52c:	81 91       	ld	r24, Z+
 52e:	8f 01       	movw	r16, r30
 530:	0e 94 3e 02 	call	0x47c	; 0x47c <uart_send>
 534:	ed cf       	rjmp	.-38     	; 0x510 <uart_sendString+0xc>
 536:	8d e0       	ldi	r24, 0x0D	; 13
 538:	df 91       	pop	r29
 53a:	cf 91       	pop	r28
 53c:	1f 91       	pop	r17
 53e:	0f 91       	pop	r16
 540:	0c 94 3e 02 	jmp	0x47c	; 0x47c <uart_send>

00000544 <uart_sendValueAsChar>:
 544:	7f 92       	push	r7
 546:	8f 92       	push	r8
 548:	9f 92       	push	r9
 54a:	af 92       	push	r10
 54c:	bf 92       	push	r11
 54e:	cf 92       	push	r12
 550:	df 92       	push	r13
 552:	ef 92       	push	r14
 554:	ff 92       	push	r15
 556:	0f 93       	push	r16
 558:	1f 93       	push	r17
 55a:	cf 93       	push	r28
 55c:	df 93       	push	r29
 55e:	cd b7       	in	r28, 0x3d	; 61
 560:	de b7       	in	r29, 0x3e	; 62
 562:	64 97       	sbiw	r28, 0x14	; 20
 564:	0f b6       	in	r0, 0x3f	; 63
 566:	f8 94       	cli
 568:	de bf       	out	0x3e, r29	; 62
 56a:	0f be       	out	0x3f, r0	; 63
 56c:	cd bf       	out	0x3d, r28	; 61
 56e:	6b 01       	movw	r12, r22
 570:	7c 01       	movw	r14, r24
 572:	61 15       	cp	r22, r1
 574:	71 05       	cpc	r23, r1
 576:	81 05       	cpc	r24, r1
 578:	91 05       	cpc	r25, r1
 57a:	b1 f4       	brne	.+44     	; 0x5a8 <uart_sendValueAsChar+0x64>
 57c:	80 e3       	ldi	r24, 0x30	; 48
 57e:	64 96       	adiw	r28, 0x14	; 20
 580:	0f b6       	in	r0, 0x3f	; 63
 582:	f8 94       	cli
 584:	de bf       	out	0x3e, r29	; 62
 586:	0f be       	out	0x3f, r0	; 63
 588:	cd bf       	out	0x3d, r28	; 61
 58a:	df 91       	pop	r29
 58c:	cf 91       	pop	r28
 58e:	1f 91       	pop	r17
 590:	0f 91       	pop	r16
 592:	ff 90       	pop	r15
 594:	ef 90       	pop	r14
 596:	df 90       	pop	r13
 598:	cf 90       	pop	r12
 59a:	bf 90       	pop	r11
 59c:	af 90       	pop	r10
 59e:	9f 90       	pop	r9
 5a0:	8f 90       	pop	r8
 5a2:	7f 90       	pop	r7
 5a4:	0c 94 3e 02 	jmp	0x47c	; 0x47c <uart_send>
 5a8:	97 ff       	sbrs	r25, 7
 5aa:	0b c0       	rjmp	.+22     	; 0x5c2 <uart_sendValueAsChar+0x7e>
 5ac:	f0 94       	com	r15
 5ae:	e0 94       	com	r14
 5b0:	d0 94       	com	r13
 5b2:	c0 94       	com	r12
 5b4:	c1 1c       	adc	r12, r1
 5b6:	d1 1c       	adc	r13, r1
 5b8:	e1 1c       	adc	r14, r1
 5ba:	f1 1c       	adc	r15, r1
 5bc:	8d e2       	ldi	r24, 0x2D	; 45
 5be:	0e 94 3e 02 	call	0x47c	; 0x47c <uart_send>
 5c2:	71 2c       	mov	r7, r1
 5c4:	9a e0       	ldi	r25, 0x0A	; 10
 5c6:	89 2e       	mov	r8, r25
 5c8:	91 2c       	mov	r9, r1
 5ca:	a1 2c       	mov	r10, r1
 5cc:	b1 2c       	mov	r11, r1
 5ce:	01 e0       	ldi	r16, 0x01	; 1
 5d0:	10 e0       	ldi	r17, 0x00	; 0
 5d2:	0c 0f       	add	r16, r28
 5d4:	1d 1f       	adc	r17, r29
 5d6:	07 0d       	add	r16, r7
 5d8:	11 1d       	adc	r17, r1
 5da:	c7 01       	movw	r24, r14
 5dc:	b6 01       	movw	r22, r12
 5de:	a5 01       	movw	r20, r10
 5e0:	94 01       	movw	r18, r8
 5e2:	0e 94 2d 06 	call	0xc5a	; 0xc5a <__divmodsi4>
 5e6:	f8 01       	movw	r30, r16
 5e8:	60 83       	st	Z, r22
 5ea:	69 01       	movw	r12, r18
 5ec:	7a 01       	movw	r14, r20
 5ee:	73 94       	inc	r7
 5f0:	c1 14       	cp	r12, r1
 5f2:	d1 04       	cpc	r13, r1
 5f4:	e1 04       	cpc	r14, r1
 5f6:	f1 04       	cpc	r15, r1
 5f8:	51 f7       	brne	.-44     	; 0x5ce <uart_sendValueAsChar+0x8a>
 5fa:	00 e0       	ldi	r16, 0x00	; 0
 5fc:	10 e0       	ldi	r17, 0x00	; 0
 5fe:	e7 2c       	mov	r14, r7
 600:	f1 2c       	mov	r15, r1
 602:	cc 24       	eor	r12, r12
 604:	c3 94       	inc	r12
 606:	d1 2c       	mov	r13, r1
 608:	cc 0e       	add	r12, r28
 60a:	dd 1e       	adc	r13, r29
 60c:	ce 0c       	add	r12, r14
 60e:	df 1c       	adc	r13, r15
 610:	01 50       	subi	r16, 0x01	; 1
 612:	11 09       	sbc	r17, r1
 614:	c7 01       	movw	r24, r14
 616:	80 0f       	add	r24, r16
 618:	91 1f       	adc	r25, r17
 61a:	01 96       	adiw	r24, 0x01	; 1
 61c:	41 f0       	breq	.+16     	; 0x62e <uart_sendValueAsChar+0xea>
 61e:	f6 01       	movw	r30, r12
 620:	e0 0f       	add	r30, r16
 622:	f1 1f       	adc	r31, r17
 624:	80 81       	ld	r24, Z
 626:	80 5d       	subi	r24, 0xD0	; 208
 628:	0e 94 3e 02 	call	0x47c	; 0x47c <uart_send>
 62c:	f1 cf       	rjmp	.-30     	; 0x610 <uart_sendValueAsChar+0xcc>
 62e:	64 96       	adiw	r28, 0x14	; 20
 630:	0f b6       	in	r0, 0x3f	; 63
 632:	f8 94       	cli
 634:	de bf       	out	0x3e, r29	; 62
 636:	0f be       	out	0x3f, r0	; 63
 638:	cd bf       	out	0x3d, r28	; 61
 63a:	df 91       	pop	r29
 63c:	cf 91       	pop	r28
 63e:	1f 91       	pop	r17
 640:	0f 91       	pop	r16
 642:	ff 90       	pop	r15
 644:	ef 90       	pop	r14
 646:	df 90       	pop	r13
 648:	cf 90       	pop	r12
 64a:	bf 90       	pop	r11
 64c:	af 90       	pop	r10
 64e:	9f 90       	pop	r9
 650:	8f 90       	pop	r8
 652:	7f 90       	pop	r7
 654:	08 95       	ret

00000656 <intToCharTable>:
 656:	8f 92       	push	r8
 658:	9f 92       	push	r9
 65a:	af 92       	push	r10
 65c:	bf 92       	push	r11
 65e:	cf 92       	push	r12
 660:	df 92       	push	r13
 662:	ef 92       	push	r14
 664:	ff 92       	push	r15
 666:	0f 93       	push	r16
 668:	1f 93       	push	r17
 66a:	cf 93       	push	r28
 66c:	df 93       	push	r29
 66e:	cd b7       	in	r28, 0x3d	; 61
 670:	de b7       	in	r29, 0x3e	; 62
 672:	64 97       	sbiw	r28, 0x14	; 20
 674:	0f b6       	in	r0, 0x3f	; 63
 676:	f8 94       	cli
 678:	de bf       	out	0x3e, r29	; 62
 67a:	0f be       	out	0x3f, r0	; 63
 67c:	cd bf       	out	0x3d, r28	; 61
 67e:	8a 01       	movw	r16, r20
 680:	61 15       	cp	r22, r1
 682:	71 05       	cpc	r23, r1
 684:	81 05       	cpc	r24, r1
 686:	91 05       	cpc	r25, r1
 688:	31 f4       	brne	.+12     	; 0x696 <intToCharTable+0x40>
 68a:	80 e3       	ldi	r24, 0x30	; 48
 68c:	fa 01       	movw	r30, r20
 68e:	80 83       	st	Z, r24
 690:	81 e0       	ldi	r24, 0x01	; 1
 692:	90 e0       	ldi	r25, 0x00	; 0
 694:	46 c0       	rjmp	.+140    	; 0x722 <intToCharTable+0xcc>
 696:	97 ff       	sbrs	r25, 7
 698:	0d c0       	rjmp	.+26     	; 0x6b4 <intToCharTable+0x5e>
 69a:	90 95       	com	r25
 69c:	80 95       	com	r24
 69e:	70 95       	com	r23
 6a0:	61 95       	neg	r22
 6a2:	7f 4f       	sbci	r23, 0xFF	; 255
 6a4:	8f 4f       	sbci	r24, 0xFF	; 255
 6a6:	9f 4f       	sbci	r25, 0xFF	; 255
 6a8:	2d e2       	ldi	r18, 0x2D	; 45
 6aa:	fa 01       	movw	r30, r20
 6ac:	20 83       	st	Z, r18
 6ae:	dd 24       	eor	r13, r13
 6b0:	d3 94       	inc	r13
 6b2:	01 c0       	rjmp	.+2      	; 0x6b6 <intToCharTable+0x60>
 6b4:	d1 2c       	mov	r13, r1
 6b6:	c1 2c       	mov	r12, r1
 6b8:	3a e0       	ldi	r19, 0x0A	; 10
 6ba:	83 2e       	mov	r8, r19
 6bc:	91 2c       	mov	r9, r1
 6be:	a1 2c       	mov	r10, r1
 6c0:	b1 2c       	mov	r11, r1
 6c2:	ee 24       	eor	r14, r14
 6c4:	e3 94       	inc	r14
 6c6:	f1 2c       	mov	r15, r1
 6c8:	ec 0e       	add	r14, r28
 6ca:	fd 1e       	adc	r15, r29
 6cc:	ec 0c       	add	r14, r12
 6ce:	f1 1c       	adc	r15, r1
 6d0:	a5 01       	movw	r20, r10
 6d2:	94 01       	movw	r18, r8
 6d4:	0e 94 2d 06 	call	0xc5a	; 0xc5a <__divmodsi4>
 6d8:	f7 01       	movw	r30, r14
 6da:	60 83       	st	Z, r22
 6dc:	b9 01       	movw	r22, r18
 6de:	ca 01       	movw	r24, r20
 6e0:	c3 94       	inc	r12
 6e2:	61 15       	cp	r22, r1
 6e4:	71 05       	cpc	r23, r1
 6e6:	81 05       	cpc	r24, r1
 6e8:	91 05       	cpc	r25, r1
 6ea:	59 f7       	brne	.-42     	; 0x6c2 <intToCharTable+0x6c>
 6ec:	7c 2d       	mov	r23, r12
 6ee:	7d 0d       	add	r23, r13
 6f0:	80 e0       	ldi	r24, 0x00	; 0
 6f2:	90 e0       	ldi	r25, 0x00	; 0
 6f4:	41 e0       	ldi	r20, 0x01	; 1
 6f6:	50 e0       	ldi	r21, 0x00	; 0
 6f8:	4c 0f       	add	r20, r28
 6fa:	5d 1f       	adc	r21, r29
 6fc:	4c 0d       	add	r20, r12
 6fe:	51 1d       	adc	r21, r1
 700:	01 97       	sbiw	r24, 0x01	; 1
 702:	2d 2d       	mov	r18, r13
 704:	30 e0       	ldi	r19, 0x00	; 0
 706:	d7 16       	cp	r13, r23
 708:	59 f0       	breq	.+22     	; 0x720 <intToCharTable+0xca>
 70a:	d8 01       	movw	r26, r16
 70c:	a2 0f       	add	r26, r18
 70e:	b3 1f       	adc	r27, r19
 710:	fa 01       	movw	r30, r20
 712:	e8 0f       	add	r30, r24
 714:	f9 1f       	adc	r31, r25
 716:	60 81       	ld	r22, Z
 718:	60 5d       	subi	r22, 0xD0	; 208
 71a:	6c 93       	st	X, r22
 71c:	d3 94       	inc	r13
 71e:	f0 cf       	rjmp	.-32     	; 0x700 <intToCharTable+0xaa>
 720:	c9 01       	movw	r24, r18
 722:	64 96       	adiw	r28, 0x14	; 20
 724:	0f b6       	in	r0, 0x3f	; 63
 726:	f8 94       	cli
 728:	de bf       	out	0x3e, r29	; 62
 72a:	0f be       	out	0x3f, r0	; 63
 72c:	cd bf       	out	0x3d, r28	; 61
 72e:	df 91       	pop	r29
 730:	cf 91       	pop	r28
 732:	1f 91       	pop	r17
 734:	0f 91       	pop	r16
 736:	ff 90       	pop	r15
 738:	ef 90       	pop	r14
 73a:	df 90       	pop	r13
 73c:	cf 90       	pop	r12
 73e:	bf 90       	pop	r11
 740:	af 90       	pop	r10
 742:	9f 90       	pop	r9
 744:	8f 90       	pop	r8
 746:	08 95       	ret

00000748 <uart_sendPosPacket>:
 748:	cf 92       	push	r12
 74a:	df 92       	push	r13
 74c:	ef 92       	push	r14
 74e:	ff 92       	push	r15
 750:	cf 93       	push	r28
 752:	c8 2f       	mov	r28, r24
 754:	6a 01       	movw	r12, r20
 756:	7b 01       	movw	r14, r22
 758:	80 e5       	ldi	r24, 0x50	; 80
 75a:	0e 94 3e 02 	call	0x47c	; 0x47c <uart_send>
 75e:	8c 2f       	mov	r24, r28
 760:	0e 94 3e 02 	call	0x47c	; 0x47c <uart_send>
 764:	20 e0       	ldi	r18, 0x00	; 0
 766:	30 e0       	ldi	r19, 0x00	; 0
 768:	48 ec       	ldi	r20, 0xC8	; 200
 76a:	52 e4       	ldi	r21, 0x42	; 66
 76c:	c7 01       	movw	r24, r14
 76e:	b6 01       	movw	r22, r12
 770:	0e 94 55 07 	call	0xeaa	; 0xeaa <__mulsf3>
 774:	0e 94 d3 06 	call	0xda6	; 0xda6 <__fixsfsi>
 778:	0e 94 a2 02 	call	0x544	; 0x544 <uart_sendValueAsChar>
 77c:	8d e0       	ldi	r24, 0x0D	; 13
 77e:	cf 91       	pop	r28
 780:	ff 90       	pop	r15
 782:	ef 90       	pop	r14
 784:	df 90       	pop	r13
 786:	cf 90       	pop	r12
 788:	0c 94 3e 02 	jmp	0x47c	; 0x47c <uart_send>

0000078c <uart_sendEngPacket>:
 78c:	cf 93       	push	r28
 78e:	df 93       	push	r29
 790:	00 d0       	rcall	.+0      	; 0x792 <uart_sendEngPacket+0x6>
 792:	cd b7       	in	r28, 0x3d	; 61
 794:	de b7       	in	r29, 0x3e	; 62
 796:	80 e5       	ldi	r24, 0x50	; 80
 798:	4a 83       	std	Y+2, r20	; 0x02
 79a:	69 83       	std	Y+1, r22	; 0x01
 79c:	0e 94 3e 02 	call	0x47c	; 0x47c <uart_send>
 7a0:	85 e4       	ldi	r24, 0x45	; 69
 7a2:	0e 94 3e 02 	call	0x47c	; 0x47c <uart_send>
 7a6:	69 81       	ldd	r22, Y+1	; 0x01
 7a8:	70 e0       	ldi	r23, 0x00	; 0
 7aa:	80 e0       	ldi	r24, 0x00	; 0
 7ac:	90 e0       	ldi	r25, 0x00	; 0
 7ae:	0e 94 a2 02 	call	0x544	; 0x544 <uart_sendValueAsChar>
 7b2:	8c e2       	ldi	r24, 0x2C	; 44
 7b4:	0e 94 3e 02 	call	0x47c	; 0x47c <uart_send>
 7b8:	4a 81       	ldd	r20, Y+2	; 0x02
 7ba:	64 2f       	mov	r22, r20
 7bc:	70 e0       	ldi	r23, 0x00	; 0
 7be:	80 e0       	ldi	r24, 0x00	; 0
 7c0:	90 e0       	ldi	r25, 0x00	; 0
 7c2:	0e 94 a2 02 	call	0x544	; 0x544 <uart_sendValueAsChar>
 7c6:	8d e0       	ldi	r24, 0x0D	; 13
 7c8:	0f 90       	pop	r0
 7ca:	0f 90       	pop	r0
 7cc:	df 91       	pop	r29
 7ce:	cf 91       	pop	r28
 7d0:	0c 94 3e 02 	jmp	0x47c	; 0x47c <uart_send>

000007d4 <uart_sendPacket>:
 7d4:	fc 01       	movw	r30, r24
 7d6:	80 81       	ld	r24, Z
 7d8:	82 38       	cpi	r24, 0x82	; 130
 7da:	79 f0       	breq	.+30     	; 0x7fa <uart_sendPacket+0x26>
 7dc:	18 f4       	brcc	.+6      	; 0x7e4 <uart_sendPacket+0x10>
 7de:	81 38       	cpi	r24, 0x81	; 129
 7e0:	31 f0       	breq	.+12     	; 0x7ee <uart_sendPacket+0x1a>
 7e2:	08 95       	ret
 7e4:	83 38       	cpi	r24, 0x83	; 131
 7e6:	81 f0       	breq	.+32     	; 0x808 <uart_sendPacket+0x34>
 7e8:	84 38       	cpi	r24, 0x84	; 132
 7ea:	a1 f0       	breq	.+40     	; 0x814 <uart_sendPacket+0x40>
 7ec:	08 95       	ret
 7ee:	41 81       	ldd	r20, Z+1	; 0x01
 7f0:	52 81       	ldd	r21, Z+2	; 0x02
 7f2:	63 81       	ldd	r22, Z+3	; 0x03
 7f4:	74 81       	ldd	r23, Z+4	; 0x04
 7f6:	88 e5       	ldi	r24, 0x58	; 88
 7f8:	05 c0       	rjmp	.+10     	; 0x804 <uart_sendPacket+0x30>
 7fa:	41 81       	ldd	r20, Z+1	; 0x01
 7fc:	52 81       	ldd	r21, Z+2	; 0x02
 7fe:	63 81       	ldd	r22, Z+3	; 0x03
 800:	74 81       	ldd	r23, Z+4	; 0x04
 802:	89 e5       	ldi	r24, 0x59	; 89
 804:	0c 94 a4 03 	jmp	0x748	; 0x748 <uart_sendPosPacket>
 808:	41 81       	ldd	r20, Z+1	; 0x01
 80a:	52 81       	ldd	r21, Z+2	; 0x02
 80c:	63 81       	ldd	r22, Z+3	; 0x03
 80e:	74 81       	ldd	r23, Z+4	; 0x04
 810:	81 e4       	ldi	r24, 0x41	; 65
 812:	f8 cf       	rjmp	.-16     	; 0x804 <uart_sendPacket+0x30>
 814:	42 81       	ldd	r20, Z+2	; 0x02
 816:	61 81       	ldd	r22, Z+1	; 0x01
 818:	85 e4       	ldi	r24, 0x45	; 69
 81a:	0c 94 c6 03 	jmp	0x78c	; 0x78c <uart_sendEngPacket>

0000081e <__vector_11>:
 81e:	1f 92       	push	r1
 820:	0f 92       	push	r0
 822:	0f b6       	in	r0, 0x3f	; 63
 824:	0f 92       	push	r0
 826:	11 24       	eor	r1, r1
 828:	2f 93       	push	r18
 82a:	3f 93       	push	r19
 82c:	4f 93       	push	r20
 82e:	5f 93       	push	r21
 830:	6f 93       	push	r22
 832:	7f 93       	push	r23
 834:	8f 93       	push	r24
 836:	9f 93       	push	r25
 838:	af 93       	push	r26
 83a:	bf 93       	push	r27
 83c:	ef 93       	push	r30
 83e:	ff 93       	push	r31
 840:	80 ee       	ldi	r24, 0xE0	; 224
 842:	82 bf       	out	0x32, r24	; 50
 844:	80 91 e3 00 	lds	r24, 0x00E3
 848:	8f 5f       	subi	r24, 0xFF	; 255
 84a:	80 93 e3 00 	sts	0x00E3, r24
 84e:	80 91 b8 00 	lds	r24, 0x00B8
 852:	90 91 b9 00 	lds	r25, 0x00B9
 856:	01 96       	adiw	r24, 0x01	; 1
 858:	90 93 b9 00 	sts	0x00B9, r25
 85c:	80 93 b8 00 	sts	0x00B8, r24
 860:	88 3e       	cpi	r24, 0xE8	; 232
 862:	93 40       	sbci	r25, 0x03	; 3
 864:	0c f4       	brge	.+2      	; 0x868 <__stack+0x9>
 866:	58 c0       	rjmp	.+176    	; 0x918 <__stack+0xb9>
 868:	20 e0       	ldi	r18, 0x00	; 0
 86a:	30 e0       	ldi	r19, 0x00	; 0
 86c:	40 e8       	ldi	r20, 0x80	; 128
 86e:	5f e3       	ldi	r21, 0x3F	; 63
 870:	60 91 d3 00 	lds	r22, 0x00D3
 874:	70 91 d4 00 	lds	r23, 0x00D4
 878:	80 91 d5 00 	lds	r24, 0x00D5
 87c:	90 91 d6 00 	lds	r25, 0x00D6
 880:	0e 94 6f 06 	call	0xcde	; 0xcde <__addsf3>
 884:	60 93 d3 00 	sts	0x00D3, r22
 888:	70 93 d4 00 	sts	0x00D4, r23
 88c:	80 93 d5 00 	sts	0x00D5, r24
 890:	90 93 d6 00 	sts	0x00D6, r25
 894:	20 e0       	ldi	r18, 0x00	; 0
 896:	30 e0       	ldi	r19, 0x00	; 0
 898:	40 e8       	ldi	r20, 0x80	; 128
 89a:	5f e3       	ldi	r21, 0x3F	; 63
 89c:	60 91 cf 00 	lds	r22, 0x00CF
 8a0:	70 91 d0 00 	lds	r23, 0x00D0
 8a4:	80 91 d1 00 	lds	r24, 0x00D1
 8a8:	90 91 d2 00 	lds	r25, 0x00D2
 8ac:	0e 94 6f 06 	call	0xcde	; 0xcde <__addsf3>
 8b0:	60 93 cf 00 	sts	0x00CF, r22
 8b4:	70 93 d0 00 	sts	0x00D0, r23
 8b8:	80 93 d1 00 	sts	0x00D1, r24
 8bc:	90 93 d2 00 	sts	0x00D2, r25
 8c0:	20 e0       	ldi	r18, 0x00	; 0
 8c2:	30 e0       	ldi	r19, 0x00	; 0
 8c4:	40 e8       	ldi	r20, 0x80	; 128
 8c6:	5f e3       	ldi	r21, 0x3F	; 63
 8c8:	60 91 cb 00 	lds	r22, 0x00CB
 8cc:	70 91 cc 00 	lds	r23, 0x00CC
 8d0:	80 91 cd 00 	lds	r24, 0x00CD
 8d4:	90 91 ce 00 	lds	r25, 0x00CE
 8d8:	0e 94 6f 06 	call	0xcde	; 0xcde <__addsf3>
 8dc:	60 93 cb 00 	sts	0x00CB, r22
 8e0:	70 93 cc 00 	sts	0x00CC, r23
 8e4:	80 93 cd 00 	sts	0x00CD, r24
 8e8:	90 93 ce 00 	sts	0x00CE, r25
 8ec:	80 91 bf 00 	lds	r24, 0x00BF
 8f0:	8f 5f       	subi	r24, 0xFF	; 255
 8f2:	80 93 bf 00 	sts	0x00BF, r24
 8f6:	90 91 c0 00 	lds	r25, 0x00C0
 8fa:	84 36       	cpi	r24, 0x64	; 100
 8fc:	29 f0       	breq	.+10     	; 0x908 <__stack+0xa9>
 8fe:	81 e0       	ldi	r24, 0x01	; 1
 900:	89 0f       	add	r24, r25
 902:	80 93 c0 00 	sts	0x00C0, r24
 906:	04 c0       	rjmp	.+8      	; 0x910 <__stack+0xb1>
 908:	10 92 c0 00 	sts	0x00C0, r1
 90c:	10 92 bf 00 	sts	0x00BF, r1
 910:	10 92 b9 00 	sts	0x00B9, r1
 914:	10 92 b8 00 	sts	0x00B8, r1
 918:	ff 91       	pop	r31
 91a:	ef 91       	pop	r30
 91c:	bf 91       	pop	r27
 91e:	af 91       	pop	r26
 920:	9f 91       	pop	r25
 922:	8f 91       	pop	r24
 924:	7f 91       	pop	r23
 926:	6f 91       	pop	r22
 928:	5f 91       	pop	r21
 92a:	4f 91       	pop	r20
 92c:	3f 91       	pop	r19
 92e:	2f 91       	pop	r18
 930:	0f 90       	pop	r0
 932:	0f be       	out	0x3f, r0	; 63
 934:	0f 90       	pop	r0
 936:	1f 90       	pop	r1
 938:	18 95       	reti

0000093a <sendInfo>:
 93a:	80 e7       	ldi	r24, 0x70	; 112
 93c:	90 e0       	ldi	r25, 0x00	; 0
 93e:	90 93 61 00 	sts	0x0061, r25
 942:	80 93 60 00 	sts	0x0060, r24
 946:	0e 94 82 02 	call	0x504	; 0x504 <uart_sendString>
 94a:	80 91 de 00 	lds	r24, 0x00DE
 94e:	0c 94 46 02 	jmp	0x48c	; 0x48c <uart_sendByteAsChar>

00000952 <dataWorkout>:
 952:	fc 01       	movw	r30, r24
 954:	80 81       	ld	r24, Z
 956:	86 30       	cpi	r24, 0x06	; 6
 958:	09 f4       	brne	.+2      	; 0x95c <dataWorkout+0xa>
 95a:	8d c0       	rjmp	.+282    	; 0xa76 <dataWorkout+0x124>
 95c:	08 f5       	brcc	.+66     	; 0x9a0 <dataWorkout+0x4e>
 95e:	83 30       	cpi	r24, 0x03	; 3
 960:	09 f4       	brne	.+2      	; 0x964 <dataWorkout+0x12>
 962:	6e c0       	rjmp	.+220    	; 0xa40 <dataWorkout+0xee>
 964:	98 f4       	brcc	.+38     	; 0x98c <dataWorkout+0x3a>
 966:	81 30       	cpi	r24, 0x01	; 1
 968:	09 f4       	brne	.+2      	; 0x96c <dataWorkout+0x1a>
 96a:	5d c0       	rjmp	.+186    	; 0xa26 <dataWorkout+0xd4>
 96c:	82 30       	cpi	r24, 0x02	; 2
 96e:	09 f0       	breq	.+2      	; 0x972 <dataWorkout+0x20>
 970:	8e c0       	rjmp	.+284    	; 0xa8e <dataWorkout+0x13c>
 972:	81 81       	ldd	r24, Z+1	; 0x01
 974:	92 81       	ldd	r25, Z+2	; 0x02
 976:	a3 81       	ldd	r26, Z+3	; 0x03
 978:	b4 81       	ldd	r27, Z+4	; 0x04
 97a:	80 93 c3 00 	sts	0x00C3, r24
 97e:	90 93 c4 00 	sts	0x00C4, r25
 982:	a0 93 c5 00 	sts	0x00C5, r26
 986:	b0 93 c6 00 	sts	0x00C6, r27
 98a:	81 c0       	rjmp	.+258    	; 0xa8e <dataWorkout+0x13c>
 98c:	84 30       	cpi	r24, 0x04	; 4
 98e:	09 f4       	brne	.+2      	; 0x992 <dataWorkout+0x40>
 990:	6e c0       	rjmp	.+220    	; 0xa6e <dataWorkout+0x11c>
 992:	85 30       	cpi	r24, 0x05	; 5
 994:	09 f0       	breq	.+2      	; 0x998 <dataWorkout+0x46>
 996:	7b c0       	rjmp	.+246    	; 0xa8e <dataWorkout+0x13c>
 998:	81 e0       	ldi	r24, 0x01	; 1
 99a:	80 93 bb 00 	sts	0x00BB, r24
 99e:	77 c0       	rjmp	.+238    	; 0xa8e <dataWorkout+0x13c>
 9a0:	82 38       	cpi	r24, 0x82	; 130
 9a2:	11 f1       	breq	.+68     	; 0x9e8 <dataWorkout+0x96>
 9a4:	88 f4       	brcc	.+34     	; 0x9c8 <dataWorkout+0x76>
 9a6:	8f 33       	cpi	r24, 0x3F	; 63
 9a8:	09 f4       	brne	.+2      	; 0x9ac <dataWorkout+0x5a>
 9aa:	69 c0       	rjmp	.+210    	; 0xa7e <dataWorkout+0x12c>
 9ac:	81 38       	cpi	r24, 0x81	; 129
 9ae:	09 f0       	breq	.+2      	; 0x9b2 <dataWorkout+0x60>
 9b0:	6e c0       	rjmp	.+220    	; 0xa8e <dataWorkout+0x13c>
 9b2:	80 93 e9 00 	sts	0x00E9, r24
 9b6:	80 91 d3 00 	lds	r24, 0x00D3
 9ba:	90 91 d4 00 	lds	r25, 0x00D4
 9be:	a0 91 d5 00 	lds	r26, 0x00D5
 9c2:	b0 91 d6 00 	lds	r27, 0x00D6
 9c6:	25 c0       	rjmp	.+74     	; 0xa12 <dataWorkout+0xc0>
 9c8:	83 38       	cpi	r24, 0x83	; 131
 9ca:	c9 f0       	breq	.+50     	; 0x9fe <dataWorkout+0xac>
 9cc:	84 38       	cpi	r24, 0x84	; 132
 9ce:	09 f0       	breq	.+2      	; 0x9d2 <dataWorkout+0x80>
 9d0:	5e c0       	rjmp	.+188    	; 0xa8e <dataWorkout+0x13c>
 9d2:	80 93 e9 00 	sts	0x00E9, r24
 9d6:	80 91 c0 00 	lds	r24, 0x00C0
 9da:	80 93 ea 00 	sts	0x00EA, r24
 9de:	80 91 bf 00 	lds	r24, 0x00BF
 9e2:	80 93 eb 00 	sts	0x00EB, r24
 9e6:	1d c0       	rjmp	.+58     	; 0xa22 <dataWorkout+0xd0>
 9e8:	80 93 e9 00 	sts	0x00E9, r24
 9ec:	80 91 cf 00 	lds	r24, 0x00CF
 9f0:	90 91 d0 00 	lds	r25, 0x00D0
 9f4:	a0 91 d1 00 	lds	r26, 0x00D1
 9f8:	b0 91 d2 00 	lds	r27, 0x00D2
 9fc:	0a c0       	rjmp	.+20     	; 0xa12 <dataWorkout+0xc0>
 9fe:	80 93 e9 00 	sts	0x00E9, r24
 a02:	80 91 cb 00 	lds	r24, 0x00CB
 a06:	90 91 cc 00 	lds	r25, 0x00CC
 a0a:	a0 91 cd 00 	lds	r26, 0x00CD
 a0e:	b0 91 ce 00 	lds	r27, 0x00CE
 a12:	80 93 ea 00 	sts	0x00EA, r24
 a16:	90 93 eb 00 	sts	0x00EB, r25
 a1a:	a0 93 ec 00 	sts	0x00EC, r26
 a1e:	b0 93 ed 00 	sts	0x00ED, r27
 a22:	81 e0       	ldi	r24, 0x01	; 1
 a24:	08 95       	ret
 a26:	81 81       	ldd	r24, Z+1	; 0x01
 a28:	92 81       	ldd	r25, Z+2	; 0x02
 a2a:	a3 81       	ldd	r26, Z+3	; 0x03
 a2c:	b4 81       	ldd	r27, Z+4	; 0x04
 a2e:	80 93 c7 00 	sts	0x00C7, r24
 a32:	90 93 c8 00 	sts	0x00C8, r25
 a36:	a0 93 c9 00 	sts	0x00C9, r26
 a3a:	b0 93 ca 00 	sts	0x00CA, r27
 a3e:	27 c0       	rjmp	.+78     	; 0xa8e <dataWorkout+0x13c>
 a40:	92 81       	ldd	r25, Z+2	; 0x02
 a42:	90 93 c2 00 	sts	0x00C2, r25
 a46:	83 81       	ldd	r24, Z+3	; 0x03
 a48:	80 93 c1 00 	sts	0x00C1, r24
 a4c:	97 ff       	sbrs	r25, 7
 a4e:	03 c0       	rjmp	.+6      	; 0xa56 <dataWorkout+0x104>
 a50:	10 92 be 00 	sts	0x00BE, r1
 a54:	03 c0       	rjmp	.+6      	; 0xa5c <dataWorkout+0x10a>
 a56:	91 e0       	ldi	r25, 0x01	; 1
 a58:	90 93 be 00 	sts	0x00BE, r25
 a5c:	87 ff       	sbrs	r24, 7
 a5e:	03 c0       	rjmp	.+6      	; 0xa66 <dataWorkout+0x114>
 a60:	10 92 bd 00 	sts	0x00BD, r1
 a64:	14 c0       	rjmp	.+40     	; 0xa8e <dataWorkout+0x13c>
 a66:	81 e0       	ldi	r24, 0x01	; 1
 a68:	80 93 bd 00 	sts	0x00BD, r24
 a6c:	10 c0       	rjmp	.+32     	; 0xa8e <dataWorkout+0x13c>
 a6e:	81 e0       	ldi	r24, 0x01	; 1
 a70:	80 93 bc 00 	sts	0x00BC, r24
 a74:	0c c0       	rjmp	.+24     	; 0xa8e <dataWorkout+0x13c>
 a76:	82 81       	ldd	r24, Z+2	; 0x02
 a78:	80 93 ba 00 	sts	0x00BA, r24
 a7c:	08 c0       	rjmp	.+16     	; 0xa8e <dataWorkout+0x13c>
 a7e:	10 92 c2 00 	sts	0x00C2, r1
 a82:	10 92 c1 00 	sts	0x00C1, r1
 a86:	10 92 bc 00 	sts	0x00BC, r1
 a8a:	10 92 bb 00 	sts	0x00BB, r1
 a8e:	80 e0       	ldi	r24, 0x00	; 0
 a90:	08 95       	ret

00000a92 <radioRec>:
 a92:	80 91 b7 00 	lds	r24, 0x00B7
 a96:	82 30       	cpi	r24, 0x02	; 2
 a98:	09 f4       	brne	.+2      	; 0xa9c <radioRec+0xa>
 a9a:	7b c0       	rjmp	.+246    	; 0xb92 <radioRec+0x100>
 a9c:	28 f4       	brcc	.+10     	; 0xaa8 <radioRec+0x16>
 a9e:	88 23       	and	r24, r24
 aa0:	51 f0       	breq	.+20     	; 0xab6 <radioRec+0x24>
 aa2:	81 30       	cpi	r24, 0x01	; 1
 aa4:	41 f1       	breq	.+80     	; 0xaf6 <radioRec+0x64>
 aa6:	08 95       	ret
 aa8:	84 30       	cpi	r24, 0x04	; 4
 aaa:	c9 f1       	breq	.+114    	; 0xb1e <radioRec+0x8c>
 aac:	60 f1       	brcs	.+88     	; 0xb06 <radioRec+0x74>
 aae:	85 30       	cpi	r24, 0x05	; 5
 ab0:	09 f4       	brne	.+2      	; 0xab4 <radioRec+0x22>
 ab2:	44 c0       	rjmp	.+136    	; 0xb3c <radioRec+0xaa>
 ab4:	08 95       	ret
 ab6:	c8 99       	sbic	0x19, 0	; 25
 ab8:	75 c0       	rjmp	.+234    	; 0xba4 <radioRec+0x112>
 aba:	c3 98       	cbi	0x18, 3	; 24
 abc:	87 e0       	ldi	r24, 0x07	; 7
 abe:	0e 94 67 00 	call	0xce	; 0xce <get_reg>
 ac2:	8e 30       	cpi	r24, 0x0E	; 14
 ac4:	31 f0       	breq	.+12     	; 0xad2 <radioRec+0x40>
 ac6:	65 e0       	ldi	r22, 0x05	; 5
 ac8:	8e ed       	ldi	r24, 0xDE	; 222
 aca:	90 e0       	ldi	r25, 0x00	; 0
 acc:	0e 94 04 02 	call	0x408	; 0x408 <radio_receive>
 ad0:	f5 cf       	rjmp	.-22     	; 0xabc <radioRec+0x2a>
 ad2:	8e ed       	ldi	r24, 0xDE	; 222
 ad4:	90 e0       	ldi	r25, 0x00	; 0
 ad6:	0e 94 a9 04 	call	0x952	; 0x952 <dataWorkout>
 ada:	88 23       	and	r24, r24
 adc:	09 f4       	brne	.+2      	; 0xae0 <radioRec+0x4e>
 ade:	61 c0       	rjmp	.+194    	; 0xba2 <radioRec+0x110>
 ae0:	0e 94 bc 01 	call	0x378	; 0x378 <radio_switchTransmiter>
 ae4:	81 e0       	ldi	r24, 0x01	; 1
 ae6:	80 93 b7 00 	sts	0x00B7, r24
 aea:	80 91 e3 00 	lds	r24, 0x00E3
 aee:	84 5e       	subi	r24, 0xE4	; 228
 af0:	80 93 b6 00 	sts	0x00B6, r24
 af4:	08 95       	ret
 af6:	90 91 e3 00 	lds	r25, 0x00E3
 afa:	80 91 b6 00 	lds	r24, 0x00B6
 afe:	98 13       	cpse	r25, r24
 b00:	51 c0       	rjmp	.+162    	; 0xba4 <radioRec+0x112>
 b02:	83 e0       	ldi	r24, 0x03	; 3
 b04:	43 c0       	rjmp	.+134    	; 0xb8c <radioRec+0xfa>
 b06:	65 e0       	ldi	r22, 0x05	; 5
 b08:	89 ee       	ldi	r24, 0xE9	; 233
 b0a:	90 e0       	ldi	r25, 0x00	; 0
 b0c:	0e 94 dc 01 	call	0x3b8	; 0x3b8 <radio_preparePayload>
 b10:	80 91 e3 00 	lds	r24, 0x00E3
 b14:	86 5f       	subi	r24, 0xF6	; 246
 b16:	80 93 b6 00 	sts	0x00B6, r24
 b1a:	84 e0       	ldi	r24, 0x04	; 4
 b1c:	37 c0       	rjmp	.+110    	; 0xb8c <radioRec+0xfa>
 b1e:	90 91 e3 00 	lds	r25, 0x00E3
 b22:	80 91 b6 00 	lds	r24, 0x00B6
 b26:	98 13       	cpse	r25, r24
 b28:	3d c0       	rjmp	.+122    	; 0xba4 <radioRec+0x112>
 b2a:	0e 94 fb 01 	call	0x3f6	; 0x3f6 <radio_transmit>
 b2e:	80 91 e3 00 	lds	r24, 0x00E3
 b32:	86 5f       	subi	r24, 0xF6	; 246
 b34:	80 93 b6 00 	sts	0x00B6, r24
 b38:	85 e0       	ldi	r24, 0x05	; 5
 b3a:	28 c0       	rjmp	.+80     	; 0xb8c <radioRec+0xfa>
 b3c:	c8 9b       	sbis	0x19, 0	; 25
 b3e:	06 c0       	rjmp	.+12     	; 0xb4c <radioRec+0xba>
 b40:	90 91 e3 00 	lds	r25, 0x00E3
 b44:	80 91 b6 00 	lds	r24, 0x00B6
 b48:	98 13       	cpse	r25, r24
 b4a:	2c c0       	rjmp	.+88     	; 0xba4 <radioRec+0x112>
 b4c:	87 e0       	ldi	r24, 0x07	; 7
 b4e:	0e 94 67 00 	call	0xce	; 0xce <get_reg>
 b52:	80 32       	cpi	r24, 0x20	; 32
 b54:	41 f4       	brne	.+16     	; 0xb66 <radioRec+0xd4>
 b56:	8b e7       	ldi	r24, 0x7B	; 123
 b58:	90 e0       	ldi	r25, 0x00	; 0
 b5a:	90 93 61 00 	sts	0x0061, r25
 b5e:	80 93 60 00 	sts	0x0060, r24
 b62:	0e 94 82 02 	call	0x504	; 0x504 <uart_sendString>
 b66:	81 e9       	ldi	r24, 0x91	; 145
 b68:	90 e0       	ldi	r25, 0x00	; 0
 b6a:	0e 94 82 02 	call	0x504	; 0x504 <uart_sendString>
 b6e:	87 e0       	ldi	r24, 0x07	; 7
 b70:	0e 94 67 00 	call	0xce	; 0xce <get_reg>
 b74:	0e 94 46 02 	call	0x48c	; 0x48c <uart_sendByteAsChar>
 b78:	0e 94 83 01 	call	0x306	; 0x306 <reset_radio>
 b7c:	0e 94 9c 01 	call	0x338	; 0x338 <radio_switchReceiver>
 b80:	80 91 e3 00 	lds	r24, 0x00E3
 b84:	86 5f       	subi	r24, 0xF6	; 246
 b86:	80 93 b6 00 	sts	0x00B6, r24
 b8a:	82 e0       	ldi	r24, 0x02	; 2
 b8c:	80 93 b7 00 	sts	0x00B7, r24
 b90:	08 95       	ret
 b92:	90 91 e3 00 	lds	r25, 0x00E3
 b96:	80 91 b6 00 	lds	r24, 0x00B6
 b9a:	98 13       	cpse	r25, r24
 b9c:	03 c0       	rjmp	.+6      	; 0xba4 <radioRec+0x112>
 b9e:	10 92 b7 00 	sts	0x00B7, r1
 ba2:	c3 9a       	sbi	0x18, 3	; 24
 ba4:	08 95       	ret

00000ba6 <main>:
 ba6:	1a ba       	out	0x1a, r1	; 26
 ba8:	81 e0       	ldi	r24, 0x01	; 1
 baa:	8b bb       	out	0x1b, r24	; 27
 bac:	2f ef       	ldi	r18, 0xFF	; 255
 bae:	89 e6       	ldi	r24, 0x69	; 105
 bb0:	98 e1       	ldi	r25, 0x18	; 24
 bb2:	21 50       	subi	r18, 0x01	; 1
 bb4:	80 40       	sbci	r24, 0x00	; 0
 bb6:	90 40       	sbci	r25, 0x00	; 0
 bb8:	e1 f7       	brne	.-8      	; 0xbb2 <main+0xc>
 bba:	00 c0       	rjmp	.+0      	; 0xbbc <main+0x16>
 bbc:	00 00       	nop
 bbe:	60 e0       	ldi	r22, 0x00	; 0
 bc0:	81 e0       	ldi	r24, 0x01	; 1
 bc2:	0e 94 49 00 	call	0x92	; 0x92 <init_SPI>
 bc6:	2f ef       	ldi	r18, 0xFF	; 255
 bc8:	89 e6       	ldi	r24, 0x69	; 105
 bca:	98 e1       	ldi	r25, 0x18	; 24
 bcc:	21 50       	subi	r18, 0x01	; 1
 bce:	80 40       	sbci	r24, 0x00	; 0
 bd0:	90 40       	sbci	r25, 0x00	; 0
 bd2:	e1 f7       	brne	.-8      	; 0xbcc <main+0x26>
 bd4:	00 c0       	rjmp	.+0      	; 0xbd6 <main+0x30>
 bd6:	00 00       	nop
 bd8:	45 e0       	ldi	r20, 0x05	; 5
 bda:	60 e0       	ldi	r22, 0x00	; 0
 bdc:	81 e0       	ldi	r24, 0x01	; 1
 bde:	0e 94 c8 00 	call	0x190	; 0x190 <init_radio>
 be2:	2f ef       	ldi	r18, 0xFF	; 255
 be4:	80 e7       	ldi	r24, 0x70	; 112
 be6:	92 e0       	ldi	r25, 0x02	; 2
 be8:	21 50       	subi	r18, 0x01	; 1
 bea:	80 40       	sbci	r24, 0x00	; 0
 bec:	90 40       	sbci	r25, 0x00	; 0
 bee:	e1 f7       	brne	.-8      	; 0xbe8 <main+0x42>
 bf0:	00 c0       	rjmp	.+0      	; 0xbf2 <main+0x4c>
 bf2:	00 00       	nop
 bf4:	0e 94 34 02 	call	0x468	; 0x468 <uart_init>
 bf8:	83 b7       	in	r24, 0x33	; 51
 bfa:	84 60       	ori	r24, 0x04	; 4
 bfc:	83 bf       	out	0x33, r24	; 51
 bfe:	89 b7       	in	r24, 0x39	; 57
 c00:	81 60       	ori	r24, 0x01	; 1
 c02:	89 bf       	out	0x39, r24	; 57
 c04:	78 94       	sei
 c06:	2f ef       	ldi	r18, 0xFF	; 255
 c08:	80 e7       	ldi	r24, 0x70	; 112
 c0a:	92 e0       	ldi	r25, 0x02	; 2
 c0c:	21 50       	subi	r18, 0x01	; 1
 c0e:	80 40       	sbci	r24, 0x00	; 0
 c10:	90 40       	sbci	r25, 0x00	; 0
 c12:	e1 f7       	brne	.-8      	; 0xc0c <main+0x66>
 c14:	00 c0       	rjmp	.+0      	; 0xc16 <main+0x70>
 c16:	00 00       	nop
 c18:	84 ea       	ldi	r24, 0xA4	; 164
 c1a:	90 e0       	ldi	r25, 0x00	; 0
 c1c:	90 93 61 00 	sts	0x0061, r25
 c20:	80 93 60 00 	sts	0x0060, r24
 c24:	0e 94 82 02 	call	0x504	; 0x504 <uart_sendString>
 c28:	87 e0       	ldi	r24, 0x07	; 7
 c2a:	0e 94 67 00 	call	0xce	; 0xce <get_reg>
 c2e:	0e 94 46 02 	call	0x48c	; 0x48c <uart_sendByteAsChar>
 c32:	2f ef       	ldi	r18, 0xFF	; 255
 c34:	83 ed       	ldi	r24, 0xD3	; 211
 c36:	90 e3       	ldi	r25, 0x30	; 48
 c38:	21 50       	subi	r18, 0x01	; 1
 c3a:	80 40       	sbci	r24, 0x00	; 0
 c3c:	90 40       	sbci	r25, 0x00	; 0
 c3e:	e1 f7       	brne	.-8      	; 0xc38 <main+0x92>
 c40:	00 c0       	rjmp	.+0      	; 0xc42 <main+0x9c>
 c42:	00 00       	nop
 c44:	c3 9a       	sbi	0x18, 3	; 24
 c46:	0e 94 49 05 	call	0xa92	; 0xa92 <radioRec>
 c4a:	fd cf       	rjmp	.-6      	; 0xc46 <main+0xa0>

00000c4c <getTransmitData>:
 c4c:	ee ed       	ldi	r30, 0xDE	; 222
 c4e:	f0 e0       	ldi	r31, 0x00	; 0
 c50:	80 81       	ld	r24, Z
 c52:	8f 5f       	subi	r24, 0xFF	; 255
 c54:	80 83       	st	Z, r24
 c56:	cf 01       	movw	r24, r30
 c58:	08 95       	ret

00000c5a <__divmodsi4>:
 c5a:	05 2e       	mov	r0, r21
 c5c:	97 fb       	bst	r25, 7
 c5e:	1e f4       	brtc	.+6      	; 0xc66 <__divmodsi4+0xc>
 c60:	00 94       	com	r0
 c62:	0e 94 44 06 	call	0xc88	; 0xc88 <__negsi2>
 c66:	57 fd       	sbrc	r21, 7
 c68:	07 d0       	rcall	.+14     	; 0xc78 <__divmodsi4_neg2>
 c6a:	0e 94 4c 06 	call	0xc98	; 0xc98 <__udivmodsi4>
 c6e:	07 fc       	sbrc	r0, 7
 c70:	03 d0       	rcall	.+6      	; 0xc78 <__divmodsi4_neg2>
 c72:	4e f4       	brtc	.+18     	; 0xc86 <__divmodsi4_exit>
 c74:	0c 94 44 06 	jmp	0xc88	; 0xc88 <__negsi2>

00000c78 <__divmodsi4_neg2>:
 c78:	50 95       	com	r21
 c7a:	40 95       	com	r20
 c7c:	30 95       	com	r19
 c7e:	21 95       	neg	r18
 c80:	3f 4f       	sbci	r19, 0xFF	; 255
 c82:	4f 4f       	sbci	r20, 0xFF	; 255
 c84:	5f 4f       	sbci	r21, 0xFF	; 255

00000c86 <__divmodsi4_exit>:
 c86:	08 95       	ret

00000c88 <__negsi2>:
 c88:	90 95       	com	r25
 c8a:	80 95       	com	r24
 c8c:	70 95       	com	r23
 c8e:	61 95       	neg	r22
 c90:	7f 4f       	sbci	r23, 0xFF	; 255
 c92:	8f 4f       	sbci	r24, 0xFF	; 255
 c94:	9f 4f       	sbci	r25, 0xFF	; 255
 c96:	08 95       	ret

00000c98 <__udivmodsi4>:
 c98:	a1 e2       	ldi	r26, 0x21	; 33
 c9a:	1a 2e       	mov	r1, r26
 c9c:	aa 1b       	sub	r26, r26
 c9e:	bb 1b       	sub	r27, r27
 ca0:	fd 01       	movw	r30, r26
 ca2:	0d c0       	rjmp	.+26     	; 0xcbe <__udivmodsi4_ep>

00000ca4 <__udivmodsi4_loop>:
 ca4:	aa 1f       	adc	r26, r26
 ca6:	bb 1f       	adc	r27, r27
 ca8:	ee 1f       	adc	r30, r30
 caa:	ff 1f       	adc	r31, r31
 cac:	a2 17       	cp	r26, r18
 cae:	b3 07       	cpc	r27, r19
 cb0:	e4 07       	cpc	r30, r20
 cb2:	f5 07       	cpc	r31, r21
 cb4:	20 f0       	brcs	.+8      	; 0xcbe <__udivmodsi4_ep>
 cb6:	a2 1b       	sub	r26, r18
 cb8:	b3 0b       	sbc	r27, r19
 cba:	e4 0b       	sbc	r30, r20
 cbc:	f5 0b       	sbc	r31, r21

00000cbe <__udivmodsi4_ep>:
 cbe:	66 1f       	adc	r22, r22
 cc0:	77 1f       	adc	r23, r23
 cc2:	88 1f       	adc	r24, r24
 cc4:	99 1f       	adc	r25, r25
 cc6:	1a 94       	dec	r1
 cc8:	69 f7       	brne	.-38     	; 0xca4 <__udivmodsi4_loop>
 cca:	60 95       	com	r22
 ccc:	70 95       	com	r23
 cce:	80 95       	com	r24
 cd0:	90 95       	com	r25
 cd2:	9b 01       	movw	r18, r22
 cd4:	ac 01       	movw	r20, r24
 cd6:	bd 01       	movw	r22, r26
 cd8:	cf 01       	movw	r24, r30
 cda:	08 95       	ret

00000cdc <__subsf3>:
 cdc:	50 58       	subi	r21, 0x80	; 128

00000cde <__addsf3>:
 cde:	bb 27       	eor	r27, r27
 ce0:	aa 27       	eor	r26, r26
 ce2:	0e d0       	rcall	.+28     	; 0xd00 <__addsf3x>
 ce4:	a8 c0       	rjmp	.+336    	; 0xe36 <__fp_round>
 ce6:	99 d0       	rcall	.+306    	; 0xe1a <__fp_pscA>
 ce8:	30 f0       	brcs	.+12     	; 0xcf6 <__addsf3+0x18>
 cea:	9e d0       	rcall	.+316    	; 0xe28 <__fp_pscB>
 cec:	20 f0       	brcs	.+8      	; 0xcf6 <__addsf3+0x18>
 cee:	31 f4       	brne	.+12     	; 0xcfc <__addsf3+0x1e>
 cf0:	9f 3f       	cpi	r25, 0xFF	; 255
 cf2:	11 f4       	brne	.+4      	; 0xcf8 <__addsf3+0x1a>
 cf4:	1e f4       	brtc	.+6      	; 0xcfc <__addsf3+0x1e>
 cf6:	8e c0       	rjmp	.+284    	; 0xe14 <__fp_nan>
 cf8:	0e f4       	brtc	.+2      	; 0xcfc <__addsf3+0x1e>
 cfa:	e0 95       	com	r30
 cfc:	e7 fb       	bst	r30, 7
 cfe:	84 c0       	rjmp	.+264    	; 0xe08 <__fp_inf>

00000d00 <__addsf3x>:
 d00:	e9 2f       	mov	r30, r25
 d02:	aa d0       	rcall	.+340    	; 0xe58 <__fp_split3>
 d04:	80 f3       	brcs	.-32     	; 0xce6 <__addsf3+0x8>
 d06:	ba 17       	cp	r27, r26
 d08:	62 07       	cpc	r22, r18
 d0a:	73 07       	cpc	r23, r19
 d0c:	84 07       	cpc	r24, r20
 d0e:	95 07       	cpc	r25, r21
 d10:	18 f0       	brcs	.+6      	; 0xd18 <__addsf3x+0x18>
 d12:	71 f4       	brne	.+28     	; 0xd30 <__addsf3x+0x30>
 d14:	9e f5       	brtc	.+102    	; 0xd7c <__addsf3x+0x7c>
 d16:	c2 c0       	rjmp	.+388    	; 0xe9c <__fp_zero>
 d18:	0e f4       	brtc	.+2      	; 0xd1c <__addsf3x+0x1c>
 d1a:	e0 95       	com	r30
 d1c:	0b 2e       	mov	r0, r27
 d1e:	ba 2f       	mov	r27, r26
 d20:	a0 2d       	mov	r26, r0
 d22:	0b 01       	movw	r0, r22
 d24:	b9 01       	movw	r22, r18
 d26:	90 01       	movw	r18, r0
 d28:	0c 01       	movw	r0, r24
 d2a:	ca 01       	movw	r24, r20
 d2c:	a0 01       	movw	r20, r0
 d2e:	11 24       	eor	r1, r1
 d30:	ff 27       	eor	r31, r31
 d32:	59 1b       	sub	r21, r25
 d34:	99 f0       	breq	.+38     	; 0xd5c <__addsf3x+0x5c>
 d36:	59 3f       	cpi	r21, 0xF9	; 249
 d38:	50 f4       	brcc	.+20     	; 0xd4e <__addsf3x+0x4e>
 d3a:	50 3e       	cpi	r21, 0xE0	; 224
 d3c:	68 f1       	brcs	.+90     	; 0xd98 <__addsf3x+0x98>
 d3e:	1a 16       	cp	r1, r26
 d40:	f0 40       	sbci	r31, 0x00	; 0
 d42:	a2 2f       	mov	r26, r18
 d44:	23 2f       	mov	r18, r19
 d46:	34 2f       	mov	r19, r20
 d48:	44 27       	eor	r20, r20
 d4a:	58 5f       	subi	r21, 0xF8	; 248
 d4c:	f3 cf       	rjmp	.-26     	; 0xd34 <__addsf3x+0x34>
 d4e:	46 95       	lsr	r20
 d50:	37 95       	ror	r19
 d52:	27 95       	ror	r18
 d54:	a7 95       	ror	r26
 d56:	f0 40       	sbci	r31, 0x00	; 0
 d58:	53 95       	inc	r21
 d5a:	c9 f7       	brne	.-14     	; 0xd4e <__addsf3x+0x4e>
 d5c:	7e f4       	brtc	.+30     	; 0xd7c <__addsf3x+0x7c>
 d5e:	1f 16       	cp	r1, r31
 d60:	ba 0b       	sbc	r27, r26
 d62:	62 0b       	sbc	r22, r18
 d64:	73 0b       	sbc	r23, r19
 d66:	84 0b       	sbc	r24, r20
 d68:	ba f0       	brmi	.+46     	; 0xd98 <__addsf3x+0x98>
 d6a:	91 50       	subi	r25, 0x01	; 1
 d6c:	a1 f0       	breq	.+40     	; 0xd96 <__addsf3x+0x96>
 d6e:	ff 0f       	add	r31, r31
 d70:	bb 1f       	adc	r27, r27
 d72:	66 1f       	adc	r22, r22
 d74:	77 1f       	adc	r23, r23
 d76:	88 1f       	adc	r24, r24
 d78:	c2 f7       	brpl	.-16     	; 0xd6a <__addsf3x+0x6a>
 d7a:	0e c0       	rjmp	.+28     	; 0xd98 <__addsf3x+0x98>
 d7c:	ba 0f       	add	r27, r26
 d7e:	62 1f       	adc	r22, r18
 d80:	73 1f       	adc	r23, r19
 d82:	84 1f       	adc	r24, r20
 d84:	48 f4       	brcc	.+18     	; 0xd98 <__addsf3x+0x98>
 d86:	87 95       	ror	r24
 d88:	77 95       	ror	r23
 d8a:	67 95       	ror	r22
 d8c:	b7 95       	ror	r27
 d8e:	f7 95       	ror	r31
 d90:	9e 3f       	cpi	r25, 0xFE	; 254
 d92:	08 f0       	brcs	.+2      	; 0xd96 <__addsf3x+0x96>
 d94:	b3 cf       	rjmp	.-154    	; 0xcfc <__addsf3+0x1e>
 d96:	93 95       	inc	r25
 d98:	88 0f       	add	r24, r24
 d9a:	08 f0       	brcs	.+2      	; 0xd9e <__addsf3x+0x9e>
 d9c:	99 27       	eor	r25, r25
 d9e:	ee 0f       	add	r30, r30
 da0:	97 95       	ror	r25
 da2:	87 95       	ror	r24
 da4:	08 95       	ret

00000da6 <__fixsfsi>:
 da6:	04 d0       	rcall	.+8      	; 0xdb0 <__fixunssfsi>
 da8:	68 94       	set
 daa:	b1 11       	cpse	r27, r1
 dac:	78 c0       	rjmp	.+240    	; 0xe9e <__fp_szero>
 dae:	08 95       	ret

00000db0 <__fixunssfsi>:
 db0:	5b d0       	rcall	.+182    	; 0xe68 <__fp_splitA>
 db2:	88 f0       	brcs	.+34     	; 0xdd6 <__fixunssfsi+0x26>
 db4:	9f 57       	subi	r25, 0x7F	; 127
 db6:	90 f0       	brcs	.+36     	; 0xddc <__fixunssfsi+0x2c>
 db8:	b9 2f       	mov	r27, r25
 dba:	99 27       	eor	r25, r25
 dbc:	b7 51       	subi	r27, 0x17	; 23
 dbe:	a0 f0       	brcs	.+40     	; 0xde8 <__fixunssfsi+0x38>
 dc0:	d1 f0       	breq	.+52     	; 0xdf6 <__fixunssfsi+0x46>
 dc2:	66 0f       	add	r22, r22
 dc4:	77 1f       	adc	r23, r23
 dc6:	88 1f       	adc	r24, r24
 dc8:	99 1f       	adc	r25, r25
 dca:	1a f0       	brmi	.+6      	; 0xdd2 <__fixunssfsi+0x22>
 dcc:	ba 95       	dec	r27
 dce:	c9 f7       	brne	.-14     	; 0xdc2 <__fixunssfsi+0x12>
 dd0:	12 c0       	rjmp	.+36     	; 0xdf6 <__fixunssfsi+0x46>
 dd2:	b1 30       	cpi	r27, 0x01	; 1
 dd4:	81 f0       	breq	.+32     	; 0xdf6 <__fixunssfsi+0x46>
 dd6:	62 d0       	rcall	.+196    	; 0xe9c <__fp_zero>
 dd8:	b1 e0       	ldi	r27, 0x01	; 1
 dda:	08 95       	ret
 ddc:	5f c0       	rjmp	.+190    	; 0xe9c <__fp_zero>
 dde:	67 2f       	mov	r22, r23
 de0:	78 2f       	mov	r23, r24
 de2:	88 27       	eor	r24, r24
 de4:	b8 5f       	subi	r27, 0xF8	; 248
 de6:	39 f0       	breq	.+14     	; 0xdf6 <__fixunssfsi+0x46>
 de8:	b9 3f       	cpi	r27, 0xF9	; 249
 dea:	cc f3       	brlt	.-14     	; 0xdde <__fixunssfsi+0x2e>
 dec:	86 95       	lsr	r24
 dee:	77 95       	ror	r23
 df0:	67 95       	ror	r22
 df2:	b3 95       	inc	r27
 df4:	d9 f7       	brne	.-10     	; 0xdec <__fixunssfsi+0x3c>
 df6:	3e f4       	brtc	.+14     	; 0xe06 <__fixunssfsi+0x56>
 df8:	90 95       	com	r25
 dfa:	80 95       	com	r24
 dfc:	70 95       	com	r23
 dfe:	61 95       	neg	r22
 e00:	7f 4f       	sbci	r23, 0xFF	; 255
 e02:	8f 4f       	sbci	r24, 0xFF	; 255
 e04:	9f 4f       	sbci	r25, 0xFF	; 255
 e06:	08 95       	ret

00000e08 <__fp_inf>:
 e08:	97 f9       	bld	r25, 7
 e0a:	9f 67       	ori	r25, 0x7F	; 127
 e0c:	80 e8       	ldi	r24, 0x80	; 128
 e0e:	70 e0       	ldi	r23, 0x00	; 0
 e10:	60 e0       	ldi	r22, 0x00	; 0
 e12:	08 95       	ret

00000e14 <__fp_nan>:
 e14:	9f ef       	ldi	r25, 0xFF	; 255
 e16:	80 ec       	ldi	r24, 0xC0	; 192
 e18:	08 95       	ret

00000e1a <__fp_pscA>:
 e1a:	00 24       	eor	r0, r0
 e1c:	0a 94       	dec	r0
 e1e:	16 16       	cp	r1, r22
 e20:	17 06       	cpc	r1, r23
 e22:	18 06       	cpc	r1, r24
 e24:	09 06       	cpc	r0, r25
 e26:	08 95       	ret

00000e28 <__fp_pscB>:
 e28:	00 24       	eor	r0, r0
 e2a:	0a 94       	dec	r0
 e2c:	12 16       	cp	r1, r18
 e2e:	13 06       	cpc	r1, r19
 e30:	14 06       	cpc	r1, r20
 e32:	05 06       	cpc	r0, r21
 e34:	08 95       	ret

00000e36 <__fp_round>:
 e36:	09 2e       	mov	r0, r25
 e38:	03 94       	inc	r0
 e3a:	00 0c       	add	r0, r0
 e3c:	11 f4       	brne	.+4      	; 0xe42 <__fp_round+0xc>
 e3e:	88 23       	and	r24, r24
 e40:	52 f0       	brmi	.+20     	; 0xe56 <__fp_round+0x20>
 e42:	bb 0f       	add	r27, r27
 e44:	40 f4       	brcc	.+16     	; 0xe56 <__fp_round+0x20>
 e46:	bf 2b       	or	r27, r31
 e48:	11 f4       	brne	.+4      	; 0xe4e <__fp_round+0x18>
 e4a:	60 ff       	sbrs	r22, 0
 e4c:	04 c0       	rjmp	.+8      	; 0xe56 <__fp_round+0x20>
 e4e:	6f 5f       	subi	r22, 0xFF	; 255
 e50:	7f 4f       	sbci	r23, 0xFF	; 255
 e52:	8f 4f       	sbci	r24, 0xFF	; 255
 e54:	9f 4f       	sbci	r25, 0xFF	; 255
 e56:	08 95       	ret

00000e58 <__fp_split3>:
 e58:	57 fd       	sbrc	r21, 7
 e5a:	90 58       	subi	r25, 0x80	; 128
 e5c:	44 0f       	add	r20, r20
 e5e:	55 1f       	adc	r21, r21
 e60:	59 f0       	breq	.+22     	; 0xe78 <__fp_splitA+0x10>
 e62:	5f 3f       	cpi	r21, 0xFF	; 255
 e64:	71 f0       	breq	.+28     	; 0xe82 <__fp_splitA+0x1a>
 e66:	47 95       	ror	r20

00000e68 <__fp_splitA>:
 e68:	88 0f       	add	r24, r24
 e6a:	97 fb       	bst	r25, 7
 e6c:	99 1f       	adc	r25, r25
 e6e:	61 f0       	breq	.+24     	; 0xe88 <__fp_splitA+0x20>
 e70:	9f 3f       	cpi	r25, 0xFF	; 255
 e72:	79 f0       	breq	.+30     	; 0xe92 <__fp_splitA+0x2a>
 e74:	87 95       	ror	r24
 e76:	08 95       	ret
 e78:	12 16       	cp	r1, r18
 e7a:	13 06       	cpc	r1, r19
 e7c:	14 06       	cpc	r1, r20
 e7e:	55 1f       	adc	r21, r21
 e80:	f2 cf       	rjmp	.-28     	; 0xe66 <__fp_split3+0xe>
 e82:	46 95       	lsr	r20
 e84:	f1 df       	rcall	.-30     	; 0xe68 <__fp_splitA>
 e86:	08 c0       	rjmp	.+16     	; 0xe98 <__fp_splitA+0x30>
 e88:	16 16       	cp	r1, r22
 e8a:	17 06       	cpc	r1, r23
 e8c:	18 06       	cpc	r1, r24
 e8e:	99 1f       	adc	r25, r25
 e90:	f1 cf       	rjmp	.-30     	; 0xe74 <__fp_splitA+0xc>
 e92:	86 95       	lsr	r24
 e94:	71 05       	cpc	r23, r1
 e96:	61 05       	cpc	r22, r1
 e98:	08 94       	sec
 e9a:	08 95       	ret

00000e9c <__fp_zero>:
 e9c:	e8 94       	clt

00000e9e <__fp_szero>:
 e9e:	bb 27       	eor	r27, r27
 ea0:	66 27       	eor	r22, r22
 ea2:	77 27       	eor	r23, r23
 ea4:	cb 01       	movw	r24, r22
 ea6:	97 f9       	bld	r25, 7
 ea8:	08 95       	ret

00000eaa <__mulsf3>:
 eaa:	0b d0       	rcall	.+22     	; 0xec2 <__mulsf3x>
 eac:	c4 cf       	rjmp	.-120    	; 0xe36 <__fp_round>
 eae:	b5 df       	rcall	.-150    	; 0xe1a <__fp_pscA>
 eb0:	28 f0       	brcs	.+10     	; 0xebc <__mulsf3+0x12>
 eb2:	ba df       	rcall	.-140    	; 0xe28 <__fp_pscB>
 eb4:	18 f0       	brcs	.+6      	; 0xebc <__mulsf3+0x12>
 eb6:	95 23       	and	r25, r21
 eb8:	09 f0       	breq	.+2      	; 0xebc <__mulsf3+0x12>
 eba:	a6 cf       	rjmp	.-180    	; 0xe08 <__fp_inf>
 ebc:	ab cf       	rjmp	.-170    	; 0xe14 <__fp_nan>
 ebe:	11 24       	eor	r1, r1
 ec0:	ee cf       	rjmp	.-36     	; 0xe9e <__fp_szero>

00000ec2 <__mulsf3x>:
 ec2:	ca df       	rcall	.-108    	; 0xe58 <__fp_split3>
 ec4:	a0 f3       	brcs	.-24     	; 0xeae <__mulsf3+0x4>

00000ec6 <__mulsf3_pse>:
 ec6:	95 9f       	mul	r25, r21
 ec8:	d1 f3       	breq	.-12     	; 0xebe <__mulsf3+0x14>
 eca:	95 0f       	add	r25, r21
 ecc:	50 e0       	ldi	r21, 0x00	; 0
 ece:	55 1f       	adc	r21, r21
 ed0:	62 9f       	mul	r22, r18
 ed2:	f0 01       	movw	r30, r0
 ed4:	72 9f       	mul	r23, r18
 ed6:	bb 27       	eor	r27, r27
 ed8:	f0 0d       	add	r31, r0
 eda:	b1 1d       	adc	r27, r1
 edc:	63 9f       	mul	r22, r19
 ede:	aa 27       	eor	r26, r26
 ee0:	f0 0d       	add	r31, r0
 ee2:	b1 1d       	adc	r27, r1
 ee4:	aa 1f       	adc	r26, r26
 ee6:	64 9f       	mul	r22, r20
 ee8:	66 27       	eor	r22, r22
 eea:	b0 0d       	add	r27, r0
 eec:	a1 1d       	adc	r26, r1
 eee:	66 1f       	adc	r22, r22
 ef0:	82 9f       	mul	r24, r18
 ef2:	22 27       	eor	r18, r18
 ef4:	b0 0d       	add	r27, r0
 ef6:	a1 1d       	adc	r26, r1
 ef8:	62 1f       	adc	r22, r18
 efa:	73 9f       	mul	r23, r19
 efc:	b0 0d       	add	r27, r0
 efe:	a1 1d       	adc	r26, r1
 f00:	62 1f       	adc	r22, r18
 f02:	83 9f       	mul	r24, r19
 f04:	a0 0d       	add	r26, r0
 f06:	61 1d       	adc	r22, r1
 f08:	22 1f       	adc	r18, r18
 f0a:	74 9f       	mul	r23, r20
 f0c:	33 27       	eor	r19, r19
 f0e:	a0 0d       	add	r26, r0
 f10:	61 1d       	adc	r22, r1
 f12:	23 1f       	adc	r18, r19
 f14:	84 9f       	mul	r24, r20
 f16:	60 0d       	add	r22, r0
 f18:	21 1d       	adc	r18, r1
 f1a:	82 2f       	mov	r24, r18
 f1c:	76 2f       	mov	r23, r22
 f1e:	6a 2f       	mov	r22, r26
 f20:	11 24       	eor	r1, r1
 f22:	9f 57       	subi	r25, 0x7F	; 127
 f24:	50 40       	sbci	r21, 0x00	; 0
 f26:	8a f0       	brmi	.+34     	; 0xf4a <__mulsf3_pse+0x84>
 f28:	e1 f0       	breq	.+56     	; 0xf62 <__mulsf3_pse+0x9c>
 f2a:	88 23       	and	r24, r24
 f2c:	4a f0       	brmi	.+18     	; 0xf40 <__mulsf3_pse+0x7a>
 f2e:	ee 0f       	add	r30, r30
 f30:	ff 1f       	adc	r31, r31
 f32:	bb 1f       	adc	r27, r27
 f34:	66 1f       	adc	r22, r22
 f36:	77 1f       	adc	r23, r23
 f38:	88 1f       	adc	r24, r24
 f3a:	91 50       	subi	r25, 0x01	; 1
 f3c:	50 40       	sbci	r21, 0x00	; 0
 f3e:	a9 f7       	brne	.-22     	; 0xf2a <__mulsf3_pse+0x64>
 f40:	9e 3f       	cpi	r25, 0xFE	; 254
 f42:	51 05       	cpc	r21, r1
 f44:	70 f0       	brcs	.+28     	; 0xf62 <__mulsf3_pse+0x9c>
 f46:	60 cf       	rjmp	.-320    	; 0xe08 <__fp_inf>
 f48:	aa cf       	rjmp	.-172    	; 0xe9e <__fp_szero>
 f4a:	5f 3f       	cpi	r21, 0xFF	; 255
 f4c:	ec f3       	brlt	.-6      	; 0xf48 <__mulsf3_pse+0x82>
 f4e:	98 3e       	cpi	r25, 0xE8	; 232
 f50:	dc f3       	brlt	.-10     	; 0xf48 <__mulsf3_pse+0x82>
 f52:	86 95       	lsr	r24
 f54:	77 95       	ror	r23
 f56:	67 95       	ror	r22
 f58:	b7 95       	ror	r27
 f5a:	f7 95       	ror	r31
 f5c:	e7 95       	ror	r30
 f5e:	9f 5f       	subi	r25, 0xFF	; 255
 f60:	c1 f7       	brne	.-16     	; 0xf52 <__mulsf3_pse+0x8c>
 f62:	fe 2b       	or	r31, r30
 f64:	88 0f       	add	r24, r24
 f66:	91 1d       	adc	r25, r1
 f68:	96 95       	lsr	r25
 f6a:	87 95       	ror	r24
 f6c:	97 f9       	bld	r25, 7
 f6e:	08 95       	ret

00000f70 <_exit>:
 f70:	f8 94       	cli

00000f72 <__stop_program>:
 f72:	ff cf       	rjmp	.-2      	; 0xf72 <__stop_program>
